(dp0
VADV
p1
I56239
sVNOUN
p2
I275244
sVADP
p3
I144766
sVPRON
p4
I49334
sVDET
p5
I137019
sV.
p6
I147565
sVPRT
p7
I29829
sVVERB
p8
I182750
sVX
p9
I1700
sVNUM
p10
I14874
sVCONJ
p11
I38151
sVADJ
p12
I83721
sS'start'
p13
I57340
s.