(dp0
VPRT_NOUN
p1
I4909
sVDET_DET
p2
I809
sVPRON_ADV
p3
I2719
sVPRON_ADP
p4
I10102
sVADP_X
p5
I105
sVPRT_CONJ
p6
I959
sVX_PRT
p7
I3
sVADV_start
p8
I5238
sVNUM_.
p9
I1780
sVADV_.
p10
I6429
sVADP_VERB
p11
I30925
sVPRT_.
p12
I2705
sV._CONJ
p13
I794
sVADJ_NOUN
p14
I3552
sVADV_CONJ
p15
I3484
sVDET_.
p16
I10003
sVADV_PRT
p17
I1079
sVVERB_PRT
p18
I18568
sVPRT_X
p19
I16
sVDET_X
p20
I17
sVX_ADP
p21
I74
sVX_PRON
p22
I1
sVDET_PRT
p23
I2492
sVADV_DET
p24
I2400
sVNOUN_PRON
p25
I437
sVADV_X
p26
I17
sVADJ_CONJ
p27
I4272
sVNUM_DET
p28
I1338
sVCONJ_CONJ
p29
I10
sVCONJ_PRT
p30
I364
sVX_VERB
p31
I45
sVPRON_NOUN
p32
I5456
sVPRON_NUM
p33
I126
sVPRON_PRT
p34
I204
sV._PRON
p35
I5116
sVNUM_CONJ
p36
I713
sVVERB_PRON
p37
I34838
sVNOUN_ADP
p38
I37408
sVADJ_start
p39
I1969
sV._PRT
p40
I2288
sVVERB_DET
p41
I8861
sVNOUN_ADV
p42
I1844
sVADP_DET
p43
I1243
sVNOUN_ADJ
p44
I54594
sVCONJ_ADV
p45
I974
sVPRT_VERB
p46
I11987
sVDET_CONJ
p47
I5772
sVADJ_DET
p48
I32846
sVDET_start
p49
I12238
sVPRON_X
p50
I13
sVNOUN_PRT
p51
I1065
sVPRON_DET
p52
I1358
sVNUM_PRT
p53
I152
sVNOUN_NOUN
p54
I41123
sVADP_PRT
p55
I2706
sVADP_NUM
p56
I1950
sVPRT_PRT
p57
I335
sVNOUN_X
p58
I90
sVX_NUM
p59
I3
sVNOUN_DET
p60
I85621
sVPRON_CONJ
p61
I2579
sVNUM_VERB
p62
I1644
sVVERB_ADP
p63
I5967
sVVERB_ADV
p64
I13518
sVPRON_.
p65
I6838
sV._ADV
p66
I9570
sVADV_ADJ
p67
I810
sVDET_PRON
p68
I864
sV._ADP
p69
I1411
sVADV_ADP
p70
I2244
sV._ADJ
p71
I8404
sVADV_ADV
p72
I5446
sVVERB_ADJ
p73
I1463
sVDET_NOUN
p74
I4260
sVCONJ_NUM
p75
I570
sVPRT_start
p76
I2103
sVX_ADV
p77
I7
sV._DET
p78
I1751
sVADJ_.
p79
I4261
sV._.
p80
I15811
sVVERB_VERB
p81
I33667
sVX_ADJ
p82
I93
sVADP_NOUN
p83
I67294
sVADV_NUM
p84
I303
sVDET_NUM
p85
I195
sVPRON_VERB
p86
I10058
sVCONJ_DET
p87
I88
sVADJ_PRT
p88
I564
sVNUM_start
p89
I964
sVADJ_VERB
p90
I10510
sVVERB_NOUN
p91
I43685
sVCONJ_ADJ
p92
I3147
sVX_CONJ
p93
I30
sVADJ_PRON
p94
I468
sVPRON_PRON
p95
I404
sVX_DET
p96
I411
sVCONJ_PRON
p97
I562
sVADP_ADJ
p98
I7407
sVCONJ_start
p99
I2817
sVADP_PRON
p100
I2753
sVNUM_ADV
p101
I747
sVADP_ADP
p102
I2939
sVCONJ_NOUN
p103
I16422
sVNOUN_.
p104
I12217
sVNUM_ADP
p105
I4357
sVADJ_X
p106
I5
sVDET_VERB
p107
I29784
sVVERB_start
p108
I2588
sVNOUN_NUM
p109
I5659
sV._X
p110
I514
sVADP_CONJ
p111
I2796
sVCONJ_ADP
p112
I273
sVADV_PRON
p113
I2665
sVNUM_X
p114
I1
sVNUM_NOUN
p115
I2222
sV._VERB
p116
I14733
sVNUM_NUM
p117
I323
sVX_NOUN
p118
I99
sVPRON_ADJ
p119
I320
sVPRT_ADP
p120
I2062
sVDET_ADJ
p121
I489
sVPRT_ADV
p122
I1613
sVVERB_X
p123
I150
sVCONJ_X
p124
I57
sVDET_ADV
p125
I4136
sVPRT_ADJ
p126
I1614
sVDET_ADP
p127
I65960
sVNOUN_CONJ
p128
I9285
sVPRT_PRON
p129
I1172
sV._NUM
p130
I4027
sVPRT_DET
p131
I275
sVX_X
p132
I709
sVADV_VERB
p133
I18859
sVNUM_PRON
p134
I49
sVADJ_NUM
p135
I882
sVX_start
p136
I30
sV._NOUN
p137
I78047
sVNUM_ADJ
p138
I584
sVNOUN_VERB
p139
I17808
sVADP_.
p140
I9625
sVVERB_NUM
p141
I677
sVVERB_CONJ
p142
I7455
sVADJ_ADV
p143
I7666
sVCONJ_VERB
p144
I2628
sVADJ_ADP
p145
I11961
sVVERB_.
p146
I11313
sVCONJ_.
p147
I10239
sVX_.
p148
I195
sVADP_start
p149
I7044
sV._start
p150
I5099
sVPRT_NUM
p151
I79
sVPRON_start
p152
I9157
sVNOUN_start
p153
I8093
sVADP_ADV
p154
I7979
sVADV_NOUN
p155
I7265
sVADJ_ADJ
p156
I4765
s.