(dp0
VBEDZ-NC
p1
I8
sVNP$
p2
I2565
sVAT-TL
p3
I746
sVCS
p4
I22143
sVNP+HVZ
p5
I6
sVIN-TL-HL
p6
I6
sVNR-HL
p7
I10
sVCC-TL-HL
p8
I2
sVNNS$-HL
p9
I4
sVJJS-HL
p10
I1
sVJJ-HL
p11
I396
sVWRB-TL
p12
I9
sVJJT-TL
p13
I4
sVWRB
p14
I4509
sVDOD*
p15
I402
sVBER*-NC
p16
I1
sV)-HL
p17
I184
sVNPS$-HL
p18
I1
sVRB-HL
p19
I49
sVFW-PPSS
p20
I6
sVNP+HVZ-NC
p21
I1
sVNNS$
p22
I257
sV--
p23
I3405
sVCC-TL
p24
I307
sVFW-NN-TL
p25
I170
sVNP-TL-HL
p26
I7
sVPPSS+MD
p27
I484
sVNPS
p28
I1275
sVRBR+CS
p29
I1
sVDTI
p30
I2921
sVNPS-TL
p31
I67
sVBEM
p32
I226
sVFW-AT+NP-TL
p33
I2
sVEX+BEZ
p34
I105
sVBEG
p35
I686
sVBED
p36
I3282
sVBEZ
p37
I10066
sVDTX
p38
I104
sVDOD*-TL
p39
I1
sVFW-VB-NC
p40
I3
sVDTS
p41
I2435
sVDTS+BEZ
p42
I2
sVQL-HL
p43
I4
sVNP$-TL
p44
I141
sVWRB+DOD*
p45
I1
sVJJR+CS
p46
I1
sVNN+MD
p47
I2
sVNN-TL-HL
p48
I129
sVHVD-HL
p49
I1
sVNP+BEZ-NC
p50
I3
sVVBN+TO
p51
I5
sV*-TL
p52
I1
sVWDT-HL
p53
I30
sVMD
p54
I12431
sVNN-HL
p55
I1471
sVFW-BE
p56
I1
sVDT$
p57
I5
sVPN-TL
p58
I5
sVDT-HL
p59
I6
sVFW-NR-TL
p60
I3
sVVBG
p61
I17893
sVVBD
p62
I26167
sVVBN
p63
I29186
sVDOD
p64
I1047
sVFW-VBG-TL
p65
I1
sVDOZ
p66
I467
sVABN-TL
p67
I7
sVVB+JJ-NC
p68
I1
sVVBZ
p69
I7373
sVRB+CS
p70
I3
sVFW-PN
p71
I1
sVCS-NC
p72
I5
sVVBG-NC
p73
I16
sVBER-HL
p74
I11
sVMD*
p75
I866
sV``
p76
I8837
sVWPS-TL
p77
I12
sVOD-TL
p78
I201
sVPPSS-HL
p79
I25
sVPPS+MD
p80
I144
sVDO*
p81
I485
sVDO-HL
p82
I4
sVHVG-HL
p83
I1
sVWRB-HL
p84
I36
sVJJT
p85
I1005
sVJJS
p86
I359
sVJJR
p87
I1958
sVHV+TO
p88
I3
sVWQL
p89
I176
sVDOD-NC
p90
I1
sVCC-HL
p91
I119
sVFW-PPSS+HV
p92
I1
sVFW-NP-TL
p93
I4
sVMD+TO
p94
I2
sVVB+IN
p95
I3
sVJJT-NC
p96
I1
sVWDT+BEZ-TL
p97
I1
sV---HL
p98
I26
sVPN$
p99
I89
sVVB+PPO
p100
I71
sVBE-TL
p101
I1
sVVBG-TL
p102
I133
sVNP$-HL
p103
I8
sVVBZ-TL
p104
I17
sVUH
p105
I608
sVFW-WPO
p106
I1
sVAP+AP-NC
p107
I1
sVFW-IN
p108
I84
sVNRS-TL
p109
I1
sVABL
p110
I357
sVABN
p111
I3010
sVTO-TL
p112
I10
sVABX
p113
I730
sV*-HL
p114
I8
sVFW-WPS
p115
I1
sVVB-NC
p116
I41
sVHVD*
p117
I99
sVPPS+HVD
p118
I83
sVFW-IN+AT
p119
I4
sVFW-NP
p120
I7
sVQLP
p121
I261
sVFW-NR
p122
I1
sVFW-NN
p123
I288
sVPPS+HVZ
p124
I43
sVNNS-NC
p125
I26
sVDT+BEZ-NC
p126
I1
sVPPO
p127
I11181
sVPPO-NC
p128
I9
sVEX-HL
p129
I1
sVAP$
p130
I9
sVOD-NC
p131
I1
sVRP
p132
I6009
sVWPS+BEZ
p133
I21
sVNN+BEZ
p134
I34
sV.-TL
p135
I2
sV,
p136
I58156
sVFW-DT+BEZ
p137
I2
sVRB
p138
I36464
sVFW-PP$-NC
p139
I1
sVRN
p140
I9
sVJJ$-TL
p141
I1
sVMD-NC
p142
I2
sVVBD-NC
p143
I11
sVPPSS+BER-N
p144
I1
sVRB+BEZ-NC
p145
I1
sVWPS-HL
p146
I2
sVVBN-NC
p147
I9
sVBEZ-HL
p148
I30
sVPPL-NC
p149
I2
sVBER-TL
p150
I6
sVPP$$
p151
I164
sVNNS+MD
p152
I2
sVPPS-NC
p153
I9
sVFW-UH-NC
p154
I1
sVPPS+BEZ-NC
p155
I3
sVPPSS+BER-TL
p156
I1
sVNR-NC
p157
I4
sVFW-JJ
p158
I53
sVPPS+BEZ-HL
p159
I1
sVNPS$
p160
I38
sVRB-TL
p161
I40
sVVB-TL
p162
I96
sVBEM*
p163
I9
sVMD*-HL
p164
I1
sVFW-CC
p165
I27
sVNP+MD
p166
I2
sVEX+HVZ
p167
I2
sVFW-CD
p168
I7
sVEX+HVD
p169
I3
sVIN-HL
p170
I508
sVFW-CS
p171
I3
sVJJR-HL
p172
I17
sVFW-IN+NP-TL
p173
I2
sVJJ-TL-HL
p174
I26
sVFW-UH
p175
I8
sVEX
p176
I2164
sVFW-NNS-NC
p177
I2
sVFW-JJ-NC
p178
I2
sVVBZ-HL
p179
I72
sVVB+RP
p180
I2
sVBEZ-NC
p181
I5
sVPPSS+HV-TL
p182
I1
sVHV*
p183
I42
sVIN
p184
I120557
sVPP$-NC
p185
I13
sVNP-NC
p186
I15
sVBEN
p187
I2470
sVPP$-TL
p188
I35
sVFW-*-TL
p189
I2
sVFW-OD-TL
p190
I4
sVWPS
p191
I3924
sVWPO
p192
I280
sVMD+PPSS
p193
I1
sVWDT+BER
p194
I1
sVWDT+BEZ
p195
I47
sVCD-HL
p196
I444
sVWDT+BEZ-NC
p197
I2
sVWP$
p198
I252
sVDO+PPSS
p199
I1
sVHV-HL
p200
I3
sVDT-NC
p201
I7
sVPN-NC
p202
I2
sVFW-VBZ
p203
I4
sVHVD
p204
I4895
sVHVG
p205
I281
sVNN+BEZ-TL
p206
I2
sVHVZ
p207
I2433
sVFW-VBD
p208
I2
sVFW-VBG
p209
I7
sVNNS$-TL
p210
I74
sVJJ-TL
p211
I4107
sVFW-VBN
p212
I12
sVMD-TL
p213
I8
sVWDT+DOD
p214
I1
sVHV-TL
p215
I3
sVNN-TL
p216
I13372
sVPPSS
p217
I13802
sVNR$
p218
I66
sVBER
p219
I4379
sVFW-VB
p220
I26
sVDT
p221
I8957
sVPN+BEZ
p222
I7
sVVBG-HL
p223
I146
sVFW-PPL+VBZ
p224
I2
sVFW-NPS-TL
p225
I1
sVRB$
p226
I9
sVFW-IN+NN
p227
I5
sVFW-CC-TL
p228
I14
sVRBT
p229
I101
sVRBR
p230
I1182
sVPPS-TL
p231
I6
sVPPSS+HV
p232
I241
sVJJS-TL
p233
I20
sVNPS-HL
p234
I8
sVWPS+BEZ-TL
p235
I1
sVNNS-TL-HL
p236
I14
sVVBN-TL-NC
p237
I3
sVQL-TL
p238
I6
sVNN+NN-NC
p239
I1
sVJJR-TL
p240
I15
sVNN$-TL
p241
I361
sVFW-QL
p242
I1
sVIN-TL
p243
I1477
sVBED-NC
p244
I3
sVNRS
p245
I16
sV.-HL
p246
I598
sVQL
p247
I8735
sVPP$-HL
p248
I10
sVWRB+BER
p249
I1
sVJJ
p250
I64028
sVWRB+BEZ
p251
I11
sVNNS$-TL-HL
p252
I1
sVPPSS+BEZ
p253
I1
sV(
p254
I2264
sVPPSS+BER
p255
I278
sVDT+MD
p256
I3
sVDOZ-TL
p257
I2
sVPPSS+BEM
p258
I270
sVFW-PP$
p259
I3
sVRB+BEZ-HL
p260
I1
sVFW-RB+CC
p261
I1
sVFW-PPS
p262
I1
sVVBG+TO
p263
I17
sVDO*-HL
p264
I3
sVNR+MD
p265
I1
sVPPLS
p266
I345
sVIN+IN
p267
I1
sVBEZ*
p268
I117
sVFW-PPL
p269
I9
sVFW-PPO
p270
I4
sVNNS-HL
p271
I609
sVNIL
p272
I157
sVHVN
p273
I237
sVPPSS+BER-NC
p274
I1
sVAP-TL
p275
I18
sVFW-DT
p276
I2
sV(-HL
p277
I162
sVDTI-TL
p278
I2
sVJJ+JJ-NC
p279
I2
sVFW-RB
p280
I32
sVFW-VBD-TL
p281
I1
sVBER-NC
p282
I5
sVNNS$-NC
p283
I2
sVJJ-NC
p284
I41
sVNPS$-TL
p285
I3
sVVB+VB-NC
p286
I1
sVPN
p287
I2573
sVVB+TO
p288
I4
sVAT-TL-HL
p289
I5
sVBEM-NC
p290
I2
sVPPL-TL
p291
I1
sVABN-HL
p292
I4
sVRB-NC
p293
I26
sVDO-NC
p294
I2
sVBE-HL
p295
I13
sVWRB+IN
p296
I1
sVFW-UH-TL
p297
I1
sVPPO-HL
p298
I5
sVFW-CD-TL
p299
I2
sVTO-HL
p300
I55
sVPPS+BEZ
p301
I430
sVCD$
p302
I5
sVDO
p303
I1353
sVEX+MD
p304
I4
sVHVZ-TL
p305
I4
sVTO-NC
p306
I13
sVIN-NC
p307
I41
sV.
p308
I60638
sVWRB+DO
p309
I1
sVCD-NC
p310
I5
sVFW-PPO+IN
p311
I3
sVFW-NN$-TL
p312
I4
sVWDT+BEZ-HL
p313
I1
sVRP-HL
p314
I14
sVCC
p315
I37718
sVNN+HVZ-TL
p316
I1
sVFW-NNS-TL
p317
I36
sVDT+BEZ
p318
I179
sVWPS+HVZ
p319
I2
sVBEDZ*
p320
I154
sVNP-TL
p321
I4019
sV:-TL
p322
I22
sVNN-NC
p323
I118
sVWPO-TL
p324
I4
sVQL-NC
p325
I2
sVFW-AT+NN-TL
p326
I13
sVWDT+HVZ
p327
I2
sV.-NC
p328
I16
sVFW-DTS
p329
I1
sVNP-HL
p330
I517
sV:-HL
p331
I138
sVRBR-NC
p332
I1
sVOD-HL
p333
I8
sVBEDZ-HL
p334
I1
sVVBD-TL
p335
I6
sVNPS-NC
p336
I2
sV)
p337
I2273
sVTO+VB
p338
I2
sVFW-IN+NN-TL
p339
I2
sVPPL
p340
I1233
sVPPS
p341
I18253
sVPPSS+VB
p342
I2
sVDT-TL
p343
I9
sVRP-NC
p344
I5
sVVB
p345
I33693
sVFW-VB-TL
p346
I1
sVPP$
p347
I16872
sVVBD-HL
p348
I8
sVDTI-HL
p349
I6
sVNN-TL-NC
p350
I3
sVPPL-HL
p351
I1
sVDOZ*
p352
I89
sVNR-TL
p353
I309
sVWRB+MD
p354
I1
sVPN+HVZ
p355
I3
sVFW-IN-TL
p356
I40
sVPN+HVD
p357
I1
sVBEN-TL
p358
I2
sVBE
p359
I6360
sVWDT
p360
I5539
sVWPS+HVD
p361
I6
sVDO-TL
p362
I5
sVFW-NN-NC
p363
I6
sVWRB+BEZ-TL
p364
I3
sVUH-TL
p365
I15
sVJJR-NC
p366
I5
sVNNS
p367
I55110
sVPPSS-NC
p368
I31
sVWPS+BEZ-NC
p369
I2
sV,-TL
p370
I4
sVNN$
p371
I1480
sVVBN-TL-HL
p372
I6
sVWDT-NC
p373
I7
sVOD
p374
I1935
sVFW-OD-NC
p375
I1
sVDOZ*-TL
p376
I1
sVPPSS+HVD
p377
I83
sVCS-TL
p378
I2
sVWRB+DOZ
p379
I1
sVCC-NC
p380
I5
sVHV
p381
I3928
sVNN$-HL
p382
I20
sVFW-WDT
p383
I16
sVWRB+DOD
p384
I6
sVNN+HVZ
p385
I5
sVAT-NC
p386
I35
sVNNS-TL
p387
I2226
sVFW-BEZ
p388
I4
sVCS-HL
p389
I25
sVWPO-NC
p390
I1
sVFW-BER
p391
I3
sVNNS-TL-NC
p392
I3
sVBEZ-TL
p393
I8
sVFW-IN+AT-T
p394
I3
sVABN-NC
p395
I1
sVNR-TL-HL
p396
I5
sVBEDZ
p397
I9806
sVNP+BEZ
p398
I25
sVFW-AT-TL
p399
I44
sVBER*
p400
I47
sVWPS+MD
p401
I8
sVMD-HL
p402
I27
sVBED*
p403
I22
sVHV-NC
p404
I11
sVWPS-NC
p405
I3
sVVBN-HL
p406
I137
sVFW-TO+VB
p407
I1
sVPPSS+MD-NC
p408
I2
sVHVZ*
p409
I22
sVPPS-HL
p410
I19
sVWRB-NC
p411
I7
sVVBN-TL
p412
I591
sVCD-TL-HL
p413
I17
sV,-NC
p414
I5
sVRP-TL
p415
I4
sVAP-HL
p416
I40
sVFW-HV
p417
I1
sVWQL-TL
p418
I5
sVFW-AT
p419
I24
sVNN
p420
I152470
sVNR$-TL
p421
I11
sVVBZ-NC
p422
I7
sV*
p423
I4603
sVPPSS-TL
p424
I9
sVJJT-HL
p425
I6
sS'start'
p426
I57340
sVFW-NNS
p427
I83
sVNP
p428
I34476
sVUH-HL
p429
I1
sVNR
p430
I1566
sV:
p431
I1558
sVFW-NN$
p432
I9
sVRP+IN
p433
I4
sV,-HL
p434
I171
sVJJ-TL-NC
p435
I1
sVAP-NC
p436
I2
sV*-NC
p437
I1
sVVB-HL
p438
I125
sVHVZ-NC
p439
I2
sVDTS-HL
p440
I2
sVFW-JJT
p441
I1
sVFW-JJR
p442
I1
sVFW-JJ-TL
p443
I74
sVFW-*
p444
I6
sVRB+BEZ
p445
I11
sV''
p446
I8789
sVVB+AT
p447
I2
sVPN-HL
p448
I2
sVPPO-TL
p449
I13
sVCD-TL
p450
I898
sVUH-NC
p451
I5
sVFW-NN-TL-NC
p452
I1
sVEX-NC
p453
I1
sVPPSS+BEZ*
p454
I1
sVTO
p455
I14918
sVWDT+DO+PPS
p456
I1
sVIN+PPO
p457
I1
sVAP
p458
I9522
sVAT
p459
I97959
sVDOZ-HL
p460
I16
sVFW-RB-TL
p461
I3
sVCD
p462
I13510
sVNN+IN
p463
I1
sVFW-AT-HL
p464
I1
sVPN+MD
p465
I3
sV'
p466
I317
sVFW-PP$-TL
p467
I2
sVFW-NPS
p468
I2
sVWDT+BER+PP
p469
I1
sVNN+HVD-TL
p470
I1
sVMD+HV
p471
I7
sVAT-HL
p472
I332
sVFW-IN+AT-TL
p473
I18
s.