(dp0
VRB_PPLS
p1
I18
sVNNS_CC-TL
p2
I1
sV,_PN
p3
I117
sVNPS-HL_start
p4
I2
sVCC_JJ
p5
I2761
sVCC_PP$
p6
I7
sVFW-JJ-TL_FW-AT+NN-TL
p7
I5
sVRP-HL_NN-HL
p8
I5
sVQL_WP$
p9
I1
sVJJS_PPO
p10
I1
sV*_''
p11
I1
sVMD*_FW-PPL
p12
I1
sVCC-HL_,-HL
p13
I8
sVNP_NN-TL
p14
I1091
sVRB-HL_'
p15
I1
sVVBN_VB
p16
I170
sVJJ-TL_JJS
p17
I3
sVBED_CD
p18
I36
sVBED_CC
p19
I31
sVJJ-TL_JJT
p20
I2
sVFW-PPSS_,
p21
I1
sVBED_CS
p22
I10
sVNP_AT-TL
p23
I3
sVQL_WPS
p24
I7
sVRP_*
p25
I5
sVRP_(
p26
I3
sVCC_PPS
p27
I73
sVRP_,
p28
I53
sVBEZ_IN-NC
p29
I3
sVCC_PPL
p30
I61
sVCC_PPO
p31
I364
sVNNS$-TL_CC-TL
p32
I1
sVFW-NNS_NN
p33
I2
sVNN$_CD
p34
I8
sVPPS_RB
p35
I621
sVNN$_CC
p36
I10
sVPPS_PPL
p37
I4
sVPPS_PPO
p38
I61
sVBEDZ_NPS
p39
I8
sVOD-TL_CS
p40
I1
sVMD*_JJ
p41
I1
sVPPS_RP
p42
I16
sVNN$_CS
p43
I4
sVWRB-HL_CC-HL
p44
I3
sVNR_NPS-TL
p45
I2
sVOD-TL_CC
p46
I7
sVNN_DO*
p47
I1
sVDO_--
p48
I4
sVPPSS+HV_JJ
p49
I2
sVHV-NC_NPS-NC
p50
I1
sVRB-NC_NN
p51
I2
sVVB_NR-TL
p52
I6
sVABX_BED
p53
I14
sVCS_BEG
p54
I1
sVPP$_:
p55
I14
sVBE-HL_NN-TL-HL
p56
I3
sVHV_PPO-NC
p57
I1
sVNN_DOD
p58
I5
sVPP$_,
p59
I690
sVFW-IN+AT-TL_FW-JJ-TL
p60
I4
sVPP$_(
p61
I12
sVPP$_)
p62
I7
sVPP$_*
p63
I25
sVCS-NC_JJR-NC
p64
I1
sVPP$_'
p65
I1
sVRBR_start
p66
I67
sVWRB_:
p67
I8
sVNP$_JJR
p68
I1
sVNN-HL_,-HL
p69
I12
sVWRB_*
p70
I6
sVWRB_)
p71
I15
sVWRB_(
p72
I10
sVWRB_,
p73
I690
sVBEDZ_NP$
p74
I6
sVWRB_'
p75
I2
sVHV_DTI
p76
I11
sVABX_DO
p77
I2
sV``_WP$
p78
I2
sVPPSS+BER_WDT
p79
I9
sVDT_VB+IN
p80
I1
sVPPSS_IN
p81
I5
sVHV_DTS
p82
I7
sVNP_FW-NNS-TL
p83
I2
sVNNS_FW-NN-TL
p84
I2
sVDT_NN$
p85
I1
sVAT_FW-NNS
p86
I1
sVHV*_WPS
p87
I1
sVVBN_NN-TL
p88
I22
sVCS_DTS
p89
I3
sVBEG_WPS
p90
I2
sVPPSS+MD_RBR
p91
I1
sVJJ-HL_AP-HL
p92
I4
sVDT_NNS
p93
I93
sVAT_IN-TL
p94
I3
sVCS_DTI
p95
I6
sV._ABL
p96
I1
sV._ABN
p97
I128
sVCS-HL_NNS-HL
p98
I4
sVFW-IN_FW-JJ-TL
p99
I3
sVVBG_OD
p100
I10
sV._ABX
p101
I15
sVPP$$_PPO
p102
I1
sV``_WPS
p103
I10
sVVBN_CS
p104
I326
sVWPO_CD
p105
I4
sVEX_VB
p106
I17
sV:_JJ-TL
p107
I1
sVJJ-TL_JJR
p108
I2
sVOD-TL_WRB
p109
I1
sV,_OD
p110
I94
sVJJS_PP$
p111
I26
sVPN_OD
p112
I1
sVJJR_DT
p113
I4
sV._FW-NN-TL
p114
I15
sVJJR_DO
p115
I2
sVDOZ*_PPS
p116
I33
sVPP$-NC_DT+BEZ-NC
p117
I1
sVBEDZ*_NN
p118
I12
sVPN$_VB
p119
I9
sVPPS_EX
p120
I3
sVVBN_HVD*
p121
I61
sVBEDZ*_NR
p122
I1
sVBEDZ*_NP
p123
I9
sVNNS-TL_NNS
p124
I1
sVVBN_CC
p125
I1027
sVDTI_:
p126
I1
sVIN_UH
p127
I5
sVNP$_NN
p128
I16
sVNNS_VBZ-NC
p129
I1
sVNP$_NP
p130
I517
sVNP$_NR
p131
I1
sVVB_DOD*
p132
I304
sVPPL_,
p133
I9
sVDTI_(
p134
I3
sVDTI_*
p135
I5
sVDTI_,
p136
I138
sVPPL_*
p137
I7
sVNP-TL_NNS-TL
p138
I9
sVQL_JJ-TL
p139
I1
sVBE_NPS
p140
I1
sVPPLS_VB
p141
I115
sVABN_WPO
p142
I2
sVABN_WPS
p143
I2
sVVBN_BE
p144
I3060
sVPPS_OD
p145
I5
sVCC-TL_VB-TL
p146
I4
sVAT_IN
p147
I43271
sVHVD_NR-TL
p148
I5
sVVB-TL_CC-TL
p149
I6
sVJJR_BEDZ
p150
I41
sVIN_VB
p151
I4743
sV)_PPO
p152
I20
sVNP_CC-TL
p153
I16
sVWPS-TL_,
p154
I4
sVWPO-NC_NN-NC
p155
I1
sV''_NPS
p156
I25
sVJJS_RP
p157
I1
sVJJS_start
p158
I10
sVCS-NC_IN
p159
I1
sV)_FW-NN-TL
p160
I1
sVRBR_DT
p161
I4
sVNN-HL_AT
p162
I3
sVBED_WRB
p163
I4
sVOD_BE
p164
I1
sV)_PP$
p165
I2
sV,_AT-TL
p166
I2
sV''_NP$
p167
I4
sV:_DO
p168
I2
sVRBR_DO
p169
I8
sVAT_EX+BEZ
p170
I47
sV:_NNS
p171
I226
sVBER_NPS
p172
I44
sVNP-TL_AT-TL
p173
I78
sVNRS_,
p174
I1
sVWPS_BEZ
p175
I2
sVHVD_DTX
p176
I3
sVIN-HL_ABN-HL
p177
I1
sVVBD_''
p178
I34
sVBER-TL_WRB-TL
p179
I1
sVEX+HVD_CS
p180
I2
sVWDT+BER+PP_start
p181
I1
sVJJ-TL_VBZ-HL
p182
I1
sVDO*_VB
p183
I4
sVVB+TO_PPS
p184
I1
sVDO_WDT
p185
I27
sV)_OD
p186
I3
sVBEN-TL_HV-TL
p187
I1
sVTO_BE
p188
I28
sVNNS$_``
p189
I1
sVJJR_NN$
p190
I2
sVAT_PPSS
p191
I11
sVPPSS+BEM_VBG
p192
I1
sVFW-NN$-TL_FW-NN-TL
p193
I1
sVNNS-TL_NNS-TL
p194
I10
sVJJR_NNS
p195
I32
sVCD_DT+BEZ
p196
I2
sVDOZ_WDT
p197
I25
sVVBD_JJ
p198
I27
sVRP_:
p199
I1
sV._VBG-HL
p200
I1
sVAP_PPLS
p201
I1
sVPP$_DT
p202
I5
sVIN-HL_VB-HL
p203
I15
sVCS_QLP
p204
I16
sVEX-HL_start
p205
I1
sVFW-CC-TL_FW-OD-TL
p206
I1
sVAT_PPSS+MD
p207
I1
sV''_NR-NC
p208
I1
sVFW-JJ_FW-NNS
p209
I1
sVWPS_BEDZ
p210
I3
sVJJ_NNS$
p211
I17
sVIN-TL_NN
p212
I1
sVAT_DOD*
p213
I1
sVHV_''
p214
I3
sVNN_JJ$-TL
p215
I1
sVMD_NN
p216
I2794
sVMD_NP
p217
I572
sVRB_PPSS
p218
I591
sVMD_NR
p219
I10
sVPN_RP
p220
I11
sV:_BED
p221
I5
sVWRB_QL
p222
I2
sV._NP$
p223
I30
sVVBN-TL_CC-TL
p224
I1
sVPN_RB
p225
I97
sV:_BER
p226
I13
sVNNS_JJT
p227
I176
sV:_BEZ
p228
I13
sVNNS_JJS
p229
I91
sVNNS_JJR
p230
I316
sVIN-NC_CC
p231
I4
sVVBN+TO_PPSS
p232
I4
sVJJR_BER
p233
I17
sVJJR_BEZ
p234
I50
sVBEDZ_VB
p235
I12
sVIN-NC_CS
p236
I2
sVFW-IN_AT
p237
I7
sVJJR_BEG
p238
I2
sVNP-HL_IN-HL
p239
I41
sVJJR_BEM
p240
I1
sV._NPS
p241
I134
sV''_NP-NC
p242
I1
sVBEG_WPS+BEZ
p243
I1
sVJJ-TL_DT-TL
p244
I1
sV``_VB
p245
I81
sVWPS_:
p246
I2
sVNPS-TL_,
p247
I1
sV(_NP-TL
p248
I30
sVWPS_'
p249
I1
sVPP$_DO
p250
I21
sVWPS_,
p251
I594
sVWPS_(
p252
I7
sVWPS_)
p253
I21
sVWPS_*
p254
I2
sVJJ-TL_NNS-TL
p255
I19
sVNN_VBN
p256
I2300
sVVB_DT+MD
p257
I3
sVTO-NC_VBD-NC
p258
I1
sVTO_NPS-TL
p259
I1
sVNN_VBG
p260
I2798
sVJJ_PN$
p261
I20
sVNN_VBD
p262
I531
sVJJ-TL_JJS-TL
p263
I1
sVNN_VBZ
p264
I325
sVNP-TL_PP$
p265
I12
sVAT-TL_IN-TL
p266
I264
sVVBD_FW-NN
p267
I2
sVPP$$_BEN
p268
I2
sVFW-NNS-TL_NP$
p269
I1
sVPP$$_BED
p270
I3
sVPP$$_BEZ
p271
I9
sVDOD*_PPS
p272
I144
sVPP$$_BER
p273
I1
sVNR+MD_RB
p274
I1
sVPPSS+MD_DTS
p275
I1
sV(_FW-NNS-TL
p276
I1
sVVBZ_VBG
p277
I23
sVVB_ABL
p278
I1
sVPPSS_''
p279
I13
sVVB_ABN
p280
I51
sVBER*_RB
p281
I1
sVVBZ_VBN
p282
I14
sVFW-NPS_FW-IN+AT-TL
p283
I1
sVHVD_)
p284
I6
sVEX_PPL
p285
I2
sVRB-TL_CD-TL
p286
I2
sVHVD_,
p287
I207
sVEX_PPO
p288
I6
sVVB_RBR
p289
I69
sVVBZ_VBZ
p290
I11
sVVB_ABX
p291
I21
sVVB_RBT
p292
I6
sVWQL_NN
p293
I14
sVEX_BEDZ
p294
I8
sVWPS+BEZ_NN
p295
I4
sVFW-NNS-TL_FW-IN+AT-TL
p296
I4
sVFW-DT+BEZ_``
p297
I1
sVHV+TO_PN+MD
p298
I1
sV:_NP-TL
p299
I5
sVNP-TL_PPO
p300
I1
sVNN-HL_NN$-HL
p301
I19
sVNNS$-TL_'
p302
I1
sVQL_DTS
p303
I7
sVNNS-HL_JJR-HL
p304
I5
sVNNS-HL_WDT-HL
p305
I1
sVNNS$-TL_,
p306
I3
sV--_VB
p307
I68
sVQL_DTI
p308
I22
sVPPL_NP-TL
p309
I1
sVFW-RB_``
p310
I4
sVWDT_BE
p311
I1
sV*_PPSS+BER
p312
I18
sVDT_IN
p313
I3290
sVVB_MD*
p314
I533
sV*_PPSS+BEM
p315
I38
sVNN-TL_JJR-TL
p316
I8
sV'_NNS-TL-NC
p317
I1
sVNP_''
p318
I32
sVNN_BE
p319
I65
sVFW-IN-TL_NP$
p320
I1
sVNP$_HVG
p321
I1
sVNP$_HVD
p322
I1
sVJJR_WDT
p323
I4
sVOD_HVD
p324
I1
sVPN_DT+BEZ
p325
I2
sVFW-PP$_FW-VB
p326
I1
sVJJ_VB-NC
p327
I1
sVNNS-HL_*-HL
p328
I1
sV,_RN
p329
I1
sVNN-TL-HL_NN-TL
p330
I2
sV,_RB
p331
I4772
sVCD-TL_JJ
p332
I4
sVNNS$-TL_AT
p333
I28
sV,-HL_JJ-HL
p334
I3
sV,_RP
p335
I519
sVVBZ_NN-NC
p336
I4
sVNN-TL-HL_:
p337
I1
sVCC_HV
p338
I8
sVVBN_start
p339
I284
sVVB_DOZ*-TL
p340
I1
sVJJ-TL_OD-TL
p341
I7
sVAP_NNS-NC
p342
I1
sV'_:-HL
p343
I1
sVBEDZ-NC_WPS-NC
p344
I2
sVVBN-TL_NN
p345
I1
sVWRB-HL_NNS-HL
p346
I1
sVNP-TL_PP$-TL
p347
I3
sVBED_EX
p348
I228
sVAP-HL_,-HL
p349
I1
sVAT_NP+BEZ
p350
I4
sVHV_JJ
p351
I4
sV''_IN-TL
p352
I1
sV(_VBN-TL
p353
I1
sVVBD_WDT
p354
I418
sVNN-NC_CS
p355
I1
sVBEZ_PP$
p356
I1
sVOD-TL_AP
p357
I1
sVPPS+BEZ_IN
p358
I1
sVOD-TL_AT
p359
I98
sVNR_VBZ
p360
I11
sVPPS_PN
p361
I38
sVNR_VBG
p362
I38
sVNR_VBD
p363
I113
sV,_VBN-TL
p364
I22
sVNR_VBN
p365
I64
sVNP-HL_VBN-HL
p366
I1
sVAP_QL
p367
I552
sV.-HL_CD-TL-HL
p368
I11
sVAT-HL_CC-HL
p369
I6
sVFW-VBN_AT
p370
I1
sVPPO-TL_NN-TL
p371
I1
sVQL-TL_NN
p372
I1
sVBEZ_OD
p373
I7
sVBER_FW-JJ-TL
p374
I1
sVBEZ_NN-HL
p375
I1
sVJJT_AP
p376
I5
sVPP$-TL_VB-TL
p377
I2
sVJJT_AT
p378
I675
sVCC-HL_,
p379
I1
sVBEN_HVZ*
p380
I5
sV,_WDT
p381
I119
sVMD+HV_VBD
p382
I1
sV,_RB-TL
p383
I3
sVVBG-TL_NP$
p384
I3
sVNNS-HL_OD-HL
p385
I2
sVNP$-TL_IN-TL
p386
I6
sV--_CD-HL
p387
I3
sVVBG_BER
p388
I294
sVBEZ_PPL
p389
I19
sVBEZ_PPO
p390
I41
sVWQL_--
p391
I2
sVVBG_BEZ
p392
I370
sVVBG_BED
p393
I318
sV''_VB-NC
p394
I4
sVBEZ_PPS
p395
I1806
sVVBG_BEM
p396
I31
sVVBG_BEN
p397
I219
sVFW-NN-TL_NP-TL
p398
I5
sVNN$_,
p399
I7
sVVB-TL_start
p400
I5
sVRB+BEZ_``
p401
I1
sVBE_``
p402
I7
sVWDT-HL_,-HL
p403
I1
sVBEDZ_VBG
p404
I30
sVCD_WPO
p405
I1
sV(_start
p406
I255
sVRB_PPS+MD
p407
I9
sVBEM-NC_PPSS-NC
p408
I2
sVNP-TL_NN-TL
p409
I239
sVWP$_''
p410
I2
sVPPSS_OD
p411
I3
sVBEZ-HL_WDT-HL
p412
I1
sVCD-HL_NN
p413
I1
sVHVD*_EX
p414
I2
sV._``
p415
I6
sV)-HL_PPSS-HL
p416
I2
sV(_DT
p417
I1
sVDT_WDT
p418
I38
sVDT_NPS
p419
I4
sVHVG_AP
p420
I1
sV._FW-IN+NN-TL
p421
I1
sVFW-CD-TL_FW-IN-TL
p422
I1
sV(_DO
p423
I1
sVWPS_JJ-TL
p424
I1
sVCD_WP$
p425
I1
sVFW-RB_FW-VBD
p426
I1
sV*_PPL
p427
I2
sVCS_NR-TL
p428
I11
sVNP_BE
p429
I23
sVJJR_NP
p430
I1
sVNPS_JJ-TL
p431
I38
sVFW-RB_FW-VBZ
p432
I1
sVBE_DO*
p433
I5
sVTO_''
p434
I26
sVQL_JJR
p435
I2
sVBEZ_JJ-NC
p436
I2
sVVBZ-NC_NN-NC
p437
I1
sVPPO_VB+PPO
p438
I1
sVIN_NRS
p439
I3
sVTO-TL_RB-TL
p440
I1
sVDOD_NNS
p441
I48
sVPN_MD
p442
I14
sVPPSS_MD*
p443
I26
sV,_RBT
p444
I6
sVJJR_BE
p445
I53
sVNP-TL_``
p446
I73
sV``_--
p447
I37
sVWRB_DOZ
p448
I1
sVCC_PP$$
p449
I3
sVRB_PPSS+HV
p450
I31
sVPPS+HVZ_PPO
p451
I1
sVNRS_JJ
p452
I1
sVDOZ_:
p453
I3
sVRB_UH
p454
I19
sVDOZ_,
p455
I25
sVDOD_PPO
p456
I5
sVPP$-NC_NN
p457
I1
sVDOD_PPL
p458
I5
sVBEG_NN
p459
I67
sV)_FW-WDT
p460
I1
sVFW-NN-TL_NP$
p461
I2
sVPPO_MD
p462
I36
sVCD-TL_OD-TL
p463
I2
sVDOD_PPS
p464
I268
sVABN_WRB
p465
I19
sVUH-NC_CC
p466
I1
sVFW-IN-TL_FW-CC-TL
p467
I1
sVVB_MD+TO
p468
I1
sVFW-VBZ_FW-WDT
p469
I1
sVPPS_MD
p470
I75
sV''_NNS
p471
I793
sVCC-HL_NN-HL
p472
I50
sVVB_QL
p473
I5
sVNP_BEDZ
p474
I116
sVCC-NC_JJ-NC
p475
I1
sVNN$_``
p476
I6
sVVBN_WDT+BEZ
p477
I2
sVUH_start
p478
I145
sVAT-NC_RP-NC
p479
I1
sVBER-TL_NNS-TL
p480
I4
sVQL_--
p481
I41
sVBER_start
p482
I39
sV''_NN$
p483
I2
sVRBR_BE
p484
I7
sVBER*_NNS
p485
I5
sVPPS+MD_UH
p486
I1
sVFW-AT-TL_VBN
p487
I1
sVMD_HVZ
p488
I1
sV._JJR
p489
I97
sV._JJS
p490
I1
sVFW-NN-TL_FW-CC-TL
p491
I4
sVNR_NP-TL
p492
I5
sVMD_HVN
p493
I1
sVRBR_--
p494
I2
sV'_``
p495
I3
sVBEG_NPS$
p496
I1
sVRBT_BED
p497
I1
sVIN_NIL
p498
I2
sVRBT_BER
p499
I4
sVVBZ_NP$
p500
I2
sVJJ-TL_BEDZ
p501
I9
sVRBT_BEZ
p502
I7
sVAP_NN$-TL
p503
I3
sV._CS
p504
I8
sV)_IN
p505
I7
sVBEZ*_WPS
p506
I3
sVNP-HL_:
p507
I1
sV._CC
p508
I4
sV._CD
p509
I1046
sVNP-HL_)
p510
I2
sVNP-HL_(
p511
I1
sVBEZ-TL_NNS-TL
p512
I1
sVAT-HL_--
p513
I1
sVPPSS+HV_start
p514
I64
sVRB_--
p515
I224
sVNR_WDT
p516
I1
sV._VBG-NC
p517
I1
sVVBZ_NPS
p518
I2
sVRB-HL_VB-HL
p519
I1
sVAP_DOD*
p520
I1
sV._NN-TL
p521
I1153
sVFW-IN_VBG
p522
I1
sVFW-IN_VBD
p523
I1
sVBED_JJ
p524
I12
sVHVD_VB
p525
I1
sVDO_CD
p526
I1
sVIN_IN-NC
p527
I1
sVDO_CC
p528
I37
sVDO_CS
p529
I15
sVDOD_DT
p530
I6
sVHVD*_,
p531
I5
sVFW-VBD_``
p532
I1
sVWRB_OD
p533
I2
sVPN_PN
p534
I2
sVVBD_PPLS
p535
I3
sVBEDZ_FW-NNS-TL
p536
I1
sVVBG_ABX
p537
I6
sVRBT_BE
p538
I4
sVNP$_NN-TL
p539
I87
sV.-HL_VB-HL
p540
I6
sVIN-HL_(-HL
p541
I1
sVVBG_ABN
p542
I29
sVDO*_PPO
p543
I1
sVNN_JJ-TL
p544
I292
sV``_PN
p545
I1
sVUH-TL_AP-TL
p546
I1
sVJJ_NN-NC
p547
I3
sV''_TO
p548
I12
sVNN-TL-HL_AT-TL-HL
p549
I1
sVAT_NR-TL
p550
I5
sVRP_PPSS
p551
I3
sVJJ-TL-HL_NN-TL-HL
p552
I1
sVFW-AT+NN-TL_FW-IN
p553
I1
sVRB-TL_IN
p554
I1
sVVBZ-HL_AP-HL
p555
I1
sVNN$-TL_VBG-TL
p556
I2
sVJJT_PP$
p557
I114
sVHV*_CC
p558
I1
sVBEN_RB
p559
I217
sVIN_``
p560
I262
sVPPS_AT
p561
I1
sVPP$_JJR
p562
I5
sVNNS$_VBN
p563
I2
sVOD_NPS$
p564
I1
sVUH-NC_``
p565
I3
sVJJ-TL_--
p566
I7
sVMD-HL_NN-HL
p567
I7
sVNP-TL_NN$-TL
p568
I1
sVBEZ_NP-TL
p569
I25
sVCS-HL_(-HL
p570
I1
sVPPSS-HL_WRB-HL
p571
I1
sVVBZ_CS
p572
I38
sVDO*_NNS
p573
I18
sVAT_MD*
p574
I1
sVNN-HL_``
p575
I2
sVVBZ_CD
p576
I35
sVVBZ_CC
p577
I343
sVVBN-TL_PPSS+HV
p578
I1
sVPPS_FW-NN
p579
I2
sVFW-IN_FW-NN-TL
p580
I3
sVPN-TL_NP
p581
I1
sVBEZ*_RB
p582
I4
sVMD*_--
p583
I3
sVEX+BEZ_--
p584
I2
sVRP-NC_IN
p585
I1
sVJJ-TL-HL_VBG-HL
p586
I1
sVBE_EX
p587
I11
sVNP-TL_start
p588
I59
sVMD_NR-TL
p589
I13
sVFW-VB_JJ
p590
I1
sVWPS_ABN
p591
I27
sVJJR_ABN
p592
I1
sVJJ-NC_,
p593
I1
sVJJ-NC_*
p594
I2
sVDOD*_NP
p595
I25
sV._RP-NC
p596
I1
sVPPSS_EX+BEZ
p597
I1
sVJJ-NC_'
p598
I1
sVAP_BEDZ
p599
I45
sVWPS_NP$-TL
p600
I1
sV--_TO
p601
I4
sVIN_WDT
p602
I110
sVJJ-NC_:
p603
I1
sVRB_WPS+HVD
p604
I2
sVBEZ_EX
p605
I552
sVHVG_PPSS+BER
p606
I3
sVPN_*
p607
I10
sVNNS-HL_CC-HL
p608
I20
sVPN_(
p609
I4
sV)_ABN
p610
I5
sVNN_DT
p611
I4367
sVPN_,
p612
I163
sV---HL_start
p613
I4
sVPN_'
p614
I1
sVPN_:
p615
I2
sVNN_DO
p616
I12
sVCD-TL_DTS
p617
I1
sVDTI_DT
p618
I1
sVNN-TL_CC-TL
p619
I107
sVHVN_RB
p620
I21
sVPPL_AP
p621
I1
sVPPSS+MD_:
p622
I1
sV``_IN-TL
p623
I3
sVAP_WQL
p624
I49
sVABN_PPS+BEZ
p625
I10
sVMD*_NNS-TL
p626
I1
sVDTI_DO
p627
I11
sVAP_BEZ*
p628
I2
sVFW-JJ_JJ
p629
I2
sVPPSS+MD_,
p630
I76
sV,_TO
p631
I11
sVHV_PPS+MD
p632
I16
sVFW-NNS_JJ
p633
I5
sVDOD*_DT
p634
I1
sVABX_start
p635
I84
sVVBN-TL-HL_AT-TL-HL
p636
I1
sVNP_PP$$
p637
I1
sV)_JJ-TL
p638
I10
sVJJ-HL_CD-HL
p639
I3
sVVB_:
p640
I15
sVRB_NN-TL
p641
I115
sVWPO_--
p642
I2
sVCC_NN
p643
I9061
sVBEDZ*_PPL
p644
I1
sVCC_NR
p645
I73
sVVB_(
p646
I81
sVCC_NP
p647
I1911
sVVB_*
p648
I1161
sVVB_,
p649
I861
sVVBD-HL_NP-HL
p650
I1
sVVB_'
p651
I8
sVNIL_JJ
p652
I1
sVPPS+HVD_VBD
p653
I3
sVRP_CC
p654
I72
sVVBG_NNS$-TL
p655
I2
sVRP_CD
p656
I16
sVFW-IN_``
p657
I1
sVRB_HV
p658
I246
sVCC-TL_''
p659
I1
sVRP_CS
p660
I1
sVWPO_CC
p661
I4
sVJJR-HL_IN-HL
p662
I1
sVRB_PPS+HVZ
p663
I7
sVPPO_VB
p664
I3083
sVPPSS+BER_UH
p665
I1
sVDTS_RB
p666
I51
sV*-NC_WRB-NC
p667
I1
sVDTS_RP
p668
I13
sVRB_PPS+HVD
p669
I9
sVDO*_'
p670
I1
sVPPL_NNS-TL
p671
I1
sVWRB_NP$
p672
I2
sVPPS_VB
p673
I141
sVDO*_,
p674
I26
sVNN$_OD
p675
I4
sVDO*_:
p676
I2
sVJJ_PN+BEZ
p677
I1
sVBE_)
p678
I3
sVEX_BEZ*
p679
I2
sVMD*_NN
p680
I82
sVNNS_QL
p681
I1
sVPPSS+HV_NN
p682
I13
sVMD*_NP
p683
I40
sV,_NIL
p684
I7
sVNN$-TL_DT
p685
I8
sVHV_MD*
p686
I62
sVPP$_PPL
p687
I1
sVFW-PPL+VBZ_FW-PPL+VBZ
p688
I1
sVJJ-TL-HL_IN-HL
p689
I5
sV:-HL_NNS-TL-HL
p690
I6
sVFW-IN-TL_AT
p691
I4
sVVBG+TO_``
p692
I1
sVPPSS-NC_WDT-NC
p693
I1
sVJJT_CD
p694
I6
sVNNS_NNS$-TL
p695
I5
sVRP_NR-TL
p696
I1
sVJJT_CC
p697
I16
sVFW-JJ_FW-IN+AT
p698
I1
sVMD+HV_PPS
p699
I2
sVWRB_NPS
p700
I1
sVBE_EX+MD
p701
I4
sVCC_CS
p702
I44
sVCD_WRB
p703
I27
sVFW-NNS-TL_FW-CD-TL
p704
I1
sVNP-TL_VBN-TL
p705
I3
sVBER*_``
p706
I3
sVCD-HL_VBD-HL
p707
I2
sVCD_NR$-TL
p708
I1
sVPPSS_MD
p709
I217
sVCS_JJT
p710
I1
sVVB+AT_``
p711
I2
sVCS_JJR
p712
I228
sVPPSS_WPO
p713
I45
sVNP_WDT
p714
I171
sVVB-NC_NP-NC
p715
I1
sVWRB+DOD*_``
p716
I1
sVRB-HL_,-HL
p717
I3
sVJJR-HL_AT-HL
p718
I1
sVPPSS_WPS
p719
I10
sVHVG_CC
p720
I6
sVCD$_,
p721
I1
sVPN-NC_CC
p722
I1
sVHVG_CS
p723
I13
sVNPS_:
p724
I2
sVJJ_NPS$
p725
I4
sVVBD_CD-TL
p726
I5
sVNPS_,
p727
I34
sVEX_RB
p728
I95
sVNPS_(
p729
I1
sVNPS_*
p730
I1
sVIN_NPS
p731
I130
sVJJT_BEG
p732
I1
sVJJT_BED
p733
I2
sVDTI_RBR
p734
I2
sVJJT_NNS$
p735
I1
sVPPSS-TL_DO-TL
p736
I1
sVBEZ_FW-NNS-TL
p737
I1
sVNN-HL_JJS-HL
p738
I1
sVCC-TL_,
p739
I8
sVJJT_BER
p740
I4
sVPPO-NC_HVZ-NC
p741
I1
sV.-HL_NP-TL
p742
I1
sVJJT_BEZ
p743
I7
sVQL_NN+BEZ
p744
I4
sVPP$_UH
p745
I2
sVTO_FW-NN$
p746
I1
sVNP$_RP
p747
I9
sVPN_VBZ
p748
I43
sVCC-TL_NN-TL
p749
I108
sVNR_``
p750
I8
sV--_RBR
p751
I8
sVIN_NP$
p752
I12
sVFW-AT-TL_NP
p753
I2
sVPN_VBN
p754
I38
sVNP$_RB
p755
I28
sVPN_VBD
p756
I117
sVPN_VBG
p757
I60
sVNP$-TL_VBD
p758
I1
sVABL_IN
p759
I118
sVWRB-NC_IN
p760
I2
sVOD_VBG
p761
I2
sVOD_VBD
p762
I6
sVNR-HL_AT-HL
p763
I1
sVOD_VBN
p764
I8
sV,-HL_NNS-HL
p765
I21
sVCD-TL_AT-TL
p766
I2
sVPPLS_RB
p767
I1
sVOD_VBZ
p768
I2
sVHV-NC_VBZ
p769
I1
sVPPSS+BEM_,
p770
I38
sVNNS_PPSS+BER
p771
I1
sVCD-TL-HL_start
p772
I1
sVPPSS+BEM_:
p773
I2
sVAT_EX
p774
I7
sVIN_PPSS+BER
p775
I14
sVIN_PPSS+BEM
p776
I11
sVDTI_NP-TL
p777
I1
sVFW-NNS_FW-CD
p778
I1
sVFW-NNS_FW-CC
p779
I14
sVJJ-NC_BEN
p780
I2
sV)-HL_AT-TL-HL
p781
I3
sV''_FW-VBG
p782
I1
sV''_FW-VBD
p783
I1
sV)_start
p784
I179
sVHVD_TO
p785
I1
sVJJ-HL_NN$-HL
p786
I1
sVVBD_FW-NNS
p787
I6
sVFW-JJ_PP$
p788
I1
sVRB-NC_VBZ-NC
p789
I2
sVRP_NP+BEZ
p790
I1
sV*_BER
p791
I201
sVNN-NC_VBN-NC
p792
I1
sV._AT
p793
I2
sV*_BEZ
p794
I522
sV._AP
p795
I237
sV*_BEG
p796
I1
sV*_BED
p797
I108
sVCS_NPS-TL
p798
I1
sVJJ_NNS$-TL
p799
I3
sV*_BEM
p800
I25
sVNN$-HL_AT-HL
p801
I1
sV--_NP-TL
p802
I12
sVRB_VBZ
p803
I353
sVBED*_,
p804
I1
sVWDT_RB+BEZ
p805
I1
sVIN_NN-NC
p806
I2
sVQLP_RB
p807
I74
sVNP$_IN-TL
p808
I3
sVDO_DOD*
p809
I2
sVVBZ-HL_NP-HL
p810
I11
sVDO*_WPS
p811
I3
sVQLP_RP
p812
I1
sVPPS_NNS
p813
I249
sVRB_VBG
p814
I745
sVRN_VB
p815
I1
sVRB_VBD
p816
I1792
sVQL_DO
p817
I15
sVVBD_NN
p818
I3306
sVFW-NNS-TL_start
p819
I2
sVVBD_NR
p820
I26
sVNP-HL_NN-TL-HL
p821
I4
sVVBD_NP
p822
I3827
sVQL_DT
p823
I42
sVPPSS_start
p824
I3146
sVMD_RP
p825
I6
sVJJR_NNS$-TL
p826
I1
sVNN-NC_VBZ-NC
p827
I1
sVNN-TL_NNS-TL
p828
I209
sV,_NN-NC
p829
I11
sVJJS-TL_DTI
p830
I1
sVMD_RB
p831
I268
sVNN_WDT
p832
I265
sVMD-HL_NP-HL
p833
I2
sVDO_AP
p834
I2
sVNP-TL_CS
p835
I25
sVDOD*_VBD
p836
I2
sVWDT_BEDZ
p837
I15
sVWPS_CD-TL
p838
I1
sV(_PPS
p839
I6
sVJJ_NN+BEZ
p840
I5
sV(_PPL
p841
I3
sVIN_DOZ
p842
I14
sVNP-TL_CD
p843
I12
sVWRB_MD
p844
I2
sVUH_UH
p845
I14
sVAT_DTS
p846
I4
sVRB_BEZ*
p847
I6
sVBEDZ_JJ
p848
I31
sV(_PP$
p849
I6
sV(_PPSS
p850
I2
sVFW-BE_FW-NN
p851
I1
sV``_RB
p852
I46
sVOD-TL_VBG-TL
p853
I7
sVNP$-TL_VB
p854
I1
sVDOZ_DT
p855
I17
sVNN_PPLS
p856
I2
sVWRB-HL_BEZ-HL
p857
I1
sVFW-NP_CC
p858
I1
sV``_RP
p859
I6
sVPPO_start
p860
I1
sVBE_NN-TL
p861
I10
sV'_BER
p862
I2
sVVBN_PPS+MD
p863
I3
sV'_BEZ
p864
I3
sVAT_PP$$
p865
I2
sVBER_EX
p866
I333
sV''_JJ
p867
I573
sVNN-TL_*
p868
I2
sVNN-TL_)
p869
I16
sVNN-TL_(
p870
I88
sVWP$_PN
p871
I1
sVNN-TL_,
p872
I412
sVNN-TL_'
p873
I7
sVNN-TL_:
p874
I7
sVAT_IN+IN
p875
I1
sVPPSS+BER_PN
p876
I1
sV(_)
p877
I1
sVVBZ_AP
p878
I15
sVPPSS-NC_HV-NC
p879
I1
sVHVD_NNS
p880
I277
sVVBZ_AT
p881
I1
sVWDT_HVD
p882
I3
sVWDT_HVZ
p883
I1
sVAP$_AT
p884
I1
sVVB-TL_JJ
p885
I1
sV)_PPL
p886
I3
sV'_CS
p887
I6
sVDO_'
p888
I2
sV``_BER*
p889
I1
sVNPS_OD
p890
I1
sV._PPO-NC
p891
I1
sVDO_,
p892
I42
sVDO_*
p893
I11
sVDO_(
p894
I3
sVDO_)
p895
I1
sV'_CC
p896
I4
sVMD_JJ-NC
p897
I2
sV'_CD
p898
I1
sVIN_WDT+BEZ
p899
I2
sVDO_:
p900
I1
sVNNS$-TL_NN-TL
p901
I7
sV(_FW-NP
p902
I1
sVCC_DOD
p903
I1
sVFW-JJ_DTI
p904
I1
sVCC_DOZ
p905
I1
sV(_FW-NN
p906
I7
sVVB_VBN
p907
I22
sVVB_VBG
p908
I8
sVABX_WRB
p909
I1
sVHVD_NN-TL
p910
I64
sVVBZ_RBT
p911
I2
sVVB_VBZ
p912
I8
sVVBZ_RBR
p913
I10
sVNP$-HL_NN-TL-HL
p914
I1
sVDT+BEZ_``
p915
I50
sVAT_NPS-TL
p916
I1
sVDT-HL_IN-HL
p917
I3
sVBEDZ*_''
p918
I1
sV--_WDT
p919
I3
sVVBG_EX
p920
I1
sVNP_WRB+BEZ
p921
I5
sVPPL_CS
p922
I14
sVHV+TO_DO*
p923
I1
sVVB-HL_DO*-HL
p924
I3
sVPPL_CC
p925
I23
sVNN_--
p926
I118
sVNP$-TL_OD-TL
p927
I1
sVPPSS+MD_RP
p928
I2
sVPPS_BEDZ*
p929
I4
sVABX_,
p930
I95
sVABX_*
p931
I1
sVABX_)
p932
I1
sVCD-TL_NP
p933
I36
sVNN_RB$
p934
I4
sVWDT_CD-TL
p935
I1
sVVBN_BER*
p936
I5
sVWDT+BER_CC
p937
I1
sV,_VB
p938
I1167
sVNN-TL-HL_NN-HL
p939
I1
sVABX_:
p940
I1
sVCD-TL_NN
p941
I6
sV``_NN-TL
p942
I17
sV,_NP$-TL
p943
I3
sVEX+BEZ_NNS
p944
I1
sVVB_QLP
p945
I1
sVFW-JJ_,
p946
I2
sVPPSS_PPO
p947
I57
sVPPSS_PPL
p948
I1
sVNN_ABX
p949
I46
sVVBG-HL_NP-HL
p950
I1
sVRP_AT
p951
I1
sVRB_JJ
p952
I302
sVRP_AP
p953
I1
sV``_DTS
p954
I8
sVNP-TL_BEDZ
p955
I2
sV--_VBZ
p956
I11
sVVB_NNS+MD
p957
I1
sV``_DTI
p958
I4
sV--_VBD
p959
I50
sVNN_ABN
p960
I219
sVVBN-TL_JJ
p961
I12
sVNP_BEDZ*
p962
I3
sVVBG_NP-TL
p963
I13
sV--_VBN
p964
I94
sVPPSS+BER_WRB
p965
I20
sVDTS_PN
p966
I1
sVNNS-HL_IN-HL
p967
I63
sVNNS-TL_NP$-TL
p968
I2
sVPPO_TO
p969
I3
sVNN+BEZ_DT
p970
I3
sVNN_RBR
p971
I4
sVAT_RP+IN
p972
I1
sVHVD*_NP
p973
I13
sVQL_PN+BEZ
p974
I1
sVCC_''
p975
I232
sVNN-TL_NNS$
p976
I1
sVPPS+BEZ_UH
p977
I2
sVPN_start
p978
I282
sVFW-NN$_AT
p979
I1
sVNN$_IN
p980
I66
sVDT_DOD
p981
I12
sVIN_TO+VB
p982
I1
sVNNS-HL_'
p983
I1
sVDT_DOZ
p984
I13
sVHVD*_NN
p985
I3
sVNNS-HL_,
p986
I1
sV*-HL_BEZ-HL
p987
I2
sV--_FW-NN
p988
I5
sVDTI-HL_start
p989
I2
sVDT_DO*
p990
I1
sVBEG_EX
p991
I9
sVPP$_IN
p992
I7653
sVPPS+HVZ_ABN
p993
I1
sVJJ_QL
p994
I4399
sVBER_NIL
p995
I1
sV*_NPS
p996
I1
sV''_BER-TL
p997
I3
sVFW-NN_FW-IN
p998
I50
sVFW-IN_NNS-TL
p999
I1
sVJJT-HL_'
p1000
I1
sVFW-NN_DT
p1001
I1
sVDT-TL_ABN-TL
p1002
I3
sVVBG_IN
p1003
I3802
sVABN_NN-TL
p1004
I6
sVVB+PPO_NN
p1005
I3
sVHVG-HL_,-HL
p1006
I1
sV''_NNS-NC
p1007
I1
sVNN$-TL_NP-TL
p1008
I24
sVPPSS_WRB
p1009
I643
sVFW-NN_PPO
p1010
I1
sV,_FW-AT+NN-TL
p1011
I1
sVIN_FW-PPO+IN
p1012
I2
sVEX_*
p1013
I2
sVDOD_VBN
p1014
I5
sVEX_(
p1015
I5
sVHVD_DTS
p1016
I3
sVEX_,
p1017
I327
sVNP_RBT
p1018
I1
sVDOD_VBD
p1019
I3
sVNP$_JJ-TL
p1020
I12
sVEX_:
p1021
I8
sVIN-HL_NP
p1022
I1
sVDOD_VBZ
p1023
I1
sVCS-TL_NN-TL
p1024
I1
sVHVG_EX
p1025
I1
sVNN-TL_PP$-TL
p1026
I20
sVNP_RBR
p1027
I9
sVEX_PN
p1028
I1
sV,_DT
p1029
I263
sVDOD*_--
p1030
I1
sVVBN-TL_PPSS-TL
p1031
I1
sVUH_NN
p1032
I1
sVVBZ_CD-TL
p1033
I11
sVHVD_NPS-TL
p1034
I2
sVFW-NN-TL_FW-VB-TL
p1035
I1
sVUH_NP
p1036
I2
sVPN_IN
p1037
I293
sVVB_PN+MD
p1038
I2
sVFW-NNS-TL_FW-PP$-TL
p1039
I1
sVFW-BEZ_FW-PPS
p1040
I1
sVBEDZ*_DT
p1041
I7
sVCS_``
p1042
I170
sVBEZ_NPS-TL
p1043
I1
sVPPO_IN
p1044
I4006
sVHVD_DTI
p1045
I4
sVHVZ*_,
p1046
I1
sVBEDZ_ABN
p1047
I9
sVTO_PPLS
p1048
I8
sVWPS-NC_IN
p1049
I2
sVVBZ_BEG
p1050
I1
sVEX+HVD_start
p1051
I1
sVVBN-TL_WPS-TL
p1052
I1
sVWPS_RB
p1053
I14
sVVB-HL_'
p1054
I2
sVOD-TL_``
p1055
I2
sV''_RB-TL
p1056
I9
sVNN-HL_VBG-HL
p1057
I39
sVWPS_RP
p1058
I4
sVAT_CC
p1059
I3989
sVCC-TL_IN-TL
p1060
I1
sVPPSS-NC_NN-NC
p1061
I3
sVAT_CD
p1062
I94
sVOD_MD
p1063
I1
sVNN_IN-NC
p1064
I1
sVCD_PP$$
p1065
I1
sVNP_:
p1066
I68
sVNP_'
p1067
I10
sVAT_CS
p1068
I5637
sVVBZ_FW-NN
p1069
I1
sVHVZ_VB
p1070
I5
sVBEZ_NNS
p1071
I367
sVNP_,
p1072
I3706
sVRB-TL_``
p1073
I6
sVNP_*
p1074
I23
sVNP_)
p1075
I39
sVNP_(
p1076
I427
sVNP_DOZ
p1077
I4
sVUH_NNS
p1078
I1
sVNP_DOD
p1079
I19
sVFW-NNS_FW-AT
p1080
I2
sVDTS_WRB
p1081
I16
sVBED*_NNS
p1082
I5
sVWPS+BEZ-TL_IN
p1083
I1
sVFW-BER_FW-VBN
p1084
I1
sVPPSS+BER_NNS
p1085
I2
sV._PPS
p1086
I30
sVHVD_RB
p1087
I114
sVPPO_VB-NC
p1088
I1
sVHVD_RP
p1089
I3
sVTO_WRB
p1090
I85
sVPPO_*
p1091
I10
sV._PPO
p1092
I1976
sV._PPL
p1093
I221
sVDTI-TL_VBN-TL
p1094
I1
sVPPLS_BEZ
p1095
I1
sVAP-HL_QL-HL
p1096
I1
sVJJR-TL_JJ-TL
p1097
I2
sVMD+HV_PPSS
p1098
I3
sVPPLS_BER
p1099
I2
sVAT-NC_WPS+BEZ-NC
p1100
I1
sVVBN_NR$
p1101
I2
sVNNS-TL_PPLS
p1102
I3
sVPPL_VBG
p1103
I73
sVPPL_VBD
p1104
I204
sVPP$_NNS-TL
p1105
I3
sVPPL_VBN
p1106
I47
sVPPSS+MD_start
p1107
I117
sVAT-TL_BEZ
p1108
I2
sVPPL_VBZ
p1109
I54
sVWDT-NC_IN-NC
p1110
I1
sVFW-NN_''
p1111
I2
sVRBR_PPSS+MD
p1112
I2
sVPP$_DTI
p1113
I1
sVNPS$-TL_JJ-TL
p1114
I2
sVQL_BE
p1115
I249
sVTO-HL_WRB-HL
p1116
I19
sV*_VB+PPO
p1117
I3
sVHVD_PP$$
p1118
I1
sV._PP$
p1119
I3
sVHV_DOD*
p1120
I29
sVPP$_DTS
p1121
I1
sVRB-NC_PPS-NC
p1122
I2
sVCS_CS
p1123
I676
sVIN+IN_RB
p1124
I1
sV'_NNS
p1125
I16
sVVBN_PPSS+HVD
p1126
I39
sVCS_CD
p1127
I53
sVCS_CC
p1128
I764
sVRB-TL_VBG-TL
p1129
I1
sVMD_PN
p1130
I210
sV''_start
p1131
I89
sVNN$_ABN
p1132
I2
sVPPS+HVD_``
p1133
I1
sVJJT_BEDZ
p1134
I8
sVPP$-TL_VBN
p1135
I1
sVVB-TL_NN-TL
p1136
I6
sVDTX_start
p1137
I19
sVTO_DO
p1138
I13
sVTO+VB_NN
p1139
I1
sVNN_FW-VBN
p1140
I2
sVDO*_start
p1141
I39
sVBEDZ_WPS
p1142
I183
sV``_DOD
p1143
I3
sVTO_DT
p1144
I15
sVVBG_NN$-TL
p1145
I5
sVRBT_NN
p1146
I9
sVPPSS+HVD_``
p1147
I7
sVPN_NNS
p1148
I17
sVJJ-TL_PP$
p1149
I37
sV''_NP-TL
p1150
I100
sVFW-NNS-TL_NN
p1151
I1
sVNR_AT
p1152
I218
sV''_HV
p1153
I6
sV._PPSS+VB
p1154
I1
sVCS-HL_)
p1155
I1
sVBEN_NP
p1156
I7
sVFW-DTS_FW-CC
p1157
I1
sVRP_PP$$
p1158
I1
sVVB-HL_---HL
p1159
I2
sV,_FW-VBN
p1160
I3
sVNN-TL_VB
p1161
I94
sVNN_DTI
p1162
I1164
sVNN_DTX
p1163
I41
sVNP-TL_AP
p1164
I13
sVPPS-HL_BEZ-HL
p1165
I2
sVNN_DTS
p1166
I41
sVNP-TL_AT
p1167
I809
sVNP$-HL_NP-HL
p1168
I1
sV'_AP
p1169
I4
sV.-HL_start
p1170
I20
sV'_AT
p1171
I24
sVNPS_AT
p1172
I588
sVNPS_AP
p1173
I38
sVDTI_BER
p1174
I27
sVDTI_BEZ
p1175
I27
sVCS_NN-TL
p1176
I99
sV._VB-NC
p1177
I3
sVTO-NC_NNS-NC
p1178
I2
sV,_start
p1179
I12
sVPP$$_``
p1180
I1
sVFW-VB_NN
p1181
I1
sVABL_--
p1182
I2
sVDTI_BEN
p1183
I7
sVDO*_``
p1184
I59
sVMD_IN-NC
p1185
I1
sVVBG-TL_PP$-TL
p1186
I1
sVPPS_HVD*
p1187
I4
sVBE_IN
p1188
I5
sVNP$_NNS
p1189
I4
sVNP-NC_DOD-NC
p1190
I1
sVNR_NN-TL
p1191
I25
sVBEZ_IN
p1192
I16
sVABX_WPO
p1193
I1
sVBER-NC_WRB-NC
p1194
I1
sVFW-CC_NP
p1195
I5
sVNP-TL_FW-AT-TL
p1196
I5
sVFW-IN+NN-TL_FW-NN-TL
p1197
I2
sVNP$_NN$
p1198
I1
sVABL_start
p1199
I37
sVAT-TL_CC-TL
p1200
I11
sVBEZ_VB-NC
p1201
I2
sVTO-HL_start
p1202
I9
sV''_JJ-HL
p1203
I1
sVRB_JJ-TL
p1204
I7
sVPPO-TL_HV-TL
p1205
I1
sVFW-WPS_start
p1206
I1
sVNP_IN-TL
p1207
I34
sVHV_DT
p1208
I1
sVDO_``
p1209
I37
sVWPO_)
p1210
I1
sVEX_MD
p1211
I3
sVEX+BEZ_,
p1212
I14
sVRB_BEDZ*
p1213
I20
sV)_MD*
p1214
I1
sVHV_DO
p1215
I5
sVFW-NNS_VB
p1216
I1
sVDOZ_''
p1217
I3
sVAT_DO*
p1218
I1
sVRB_,
p1219
I3374
sV*_BE
p1220
I5
sVRB_)
p1221
I26
sVRB_(
p1222
I127
sVCC_RP
p1223
I345
sVRB_*
p1224
I663
sVRB_'
p1225
I6
sVNN-TL-HL_IN-TL-HL
p1226
I2
sV*_PPS+MD
p1227
I2
sVRP-TL_VBG-TL
p1228
I1
sVCC_RB
p1229
I851
sVNP$-TL_BEZ
p1230
I1
sVNR$_start
p1231
I5
sVHV_ABN
p1232
I11
sVFW-RB_FW-DTS
p1233
I1
sVNN-HL_(-HL
p1234
I6
sVNIL_NP
p1235
I1
sV,_VB-TL
p1236
I7
sVDTX_WRB
p1237
I2
sVNIL_NN
p1238
I2
sVHV_ABX
p1239
I5
sVNN_BEZ*
p1240
I2
sVCS_DT+BEZ
p1241
I2
sVDT+BEZ_start
p1242
I49
sVVBD-TL_PPSS
p1243
I1
sVPPO_RB
p1244
I12
sVQL_start
p1245
I286
sVJJ-HL_JJ-HL
p1246
I7
sVAT_DOZ
p1247
I35
sVDTS_VB
p1248
I144
sVAT_DOD
p1249
I53
sVCD_BER*
p1250
I2
sVRB_VB+RP
p1251
I1
sVPPLS_MD
p1252
I2
sVPPSS-HL_(-HL
p1253
I2
sVIN-TL_JJ-TL
p1254
I11
sV''_VB-HL
p1255
I1
sVNNS-TL_JJR
p1256
I1
sV,_IN-NC
p1257
I2
sVJJ-HL_NN-HL
p1258
I6
sV'_NN-NC
p1259
I1
sVIN-TL_start
p1260
I1
sVHVD_ABN
p1261
I6
sVCD_QL
p1262
I2
sVAT-NC_,-NC
p1263
I1
sVCD-HL_JJ-HL
p1264
I1
sVCC_PPL-NC
p1265
I1
sVIN_AT
p1266
I3
sVMD*_RB
p1267
I33
sVIN_AP
p1268
I1222
sVWRB_BEDZ
p1269
I31
sVBEG_CS
p1270
I59
sVPPSS+HVD_WDT
p1271
I1
sVWDT_NR-TL
p1272
I1
sVNN-NC_NN-NC
p1273
I1
sVBEG_CC
p1274
I10
sVCD-NC_NN
p1275
I1
sVNP-TL_OD
p1276
I6
sVRB_VB+PPO
p1277
I2
sVBEG_CD
p1278
I4
sVPPS_QLP
p1279
I1
sVJJR_NN$-TL
p1280
I1
sVBEZ_NN-NC
p1281
I7
sVJJT_OD
p1282
I3
sVTO_ABX
p1283
I1
sVHVZ*_NN-TL
p1284
I1
sVTO_ABN
p1285
I4
sVBEZ-TL_PPS-TL
p1286
I2
sVTO-HL_,-HL
p1287
I1
sVJJ-HL_VB-HL
p1288
I2
sVWP$_,
p1289
I74
sVWP$_)
p1290
I1
sVWP$_(
p1291
I4
sV,_FW-JJR
p1292
I1
sVJJ-HL_---HL
p1293
I3
sVNP_DO
p1294
I1
sVFW-NN_BE
p1295
I1
sVNP_DT
p1296
I69
sVNP-TL_VBN-HL
p1297
I1
sVWQL_NNS
p1298
I1
sVFW-PP$-TL_FW-CC-TL
p1299
I1
sVWRB_``
p1300
I185
sV--_``
p1301
I6
sVFW-RB-TL_FW-AT-TL
p1302
I1
sVPPL_``
p1303
I1
sVHVD*_CC
p1304
I2
sVVBZ_ABN
p1305
I3
sV,_FW-PPL+VBZ
p1306
I1
sVQLP_IN
p1307
I1
sVIN_PPS+BEZ
p1308
I18
sVPN+MD_VB
p1309
I1
sVCC_FW-NNS
p1310
I1
sVDOZ*_``
p1311
I1
sVAT-TL_WP$
p1312
I1
sVQL_NR-TL
p1313
I3
sVNR-TL_RP
p1314
I1
sV'_DO
p1315
I1
sVNNS-HL_PP$-HL
p1316
I3
sVAT-TL_VB
p1317
I2
sVNR-TL_RB
p1318
I1
sVBEZ_JJ-TL
p1319
I2
sVRB_EX+BEZ
p1320
I9
sVAT-HL_CS-HL
p1321
I5
sVNN$-TL_AT
p1322
I162
sVDT+BEZ-NC_IN
p1323
I1
sVAP_PPO
p1324
I32
sVFW-OD-TL_FW-IN+AT-TL
p1325
I1
sVNNS$_BEN
p1326
I1
sVIN_RB-NC
p1327
I1
sVNP$_NN$-TL
p1328
I1
sVAP_PP$
p1329
I132
sVHVZ_NR-TL
p1330
I7
sV.-HL_PPL-HL
p1331
I1
sVNNS-NC_PP$-NC
p1332
I3
sVVBN_WPS+BEZ
p1333
I3
sV(-HL_NNS-HL
p1334
I3
sVPPSS-HL_NP-HL
p1335
I6
sVEX+BEZ_JJ
p1336
I1
sVVBG-TL_IN-TL
p1337
I5
sV*_start
p1338
I154
sV:-HL_NN-TL-HL
p1339
I1
sVFW-AT-TL_JJ
p1340
I2
sVNP$_VB
p1341
I65
sVJJR_BED
p1342
I11
sVNNS-TL-NC_VBN-TL-NC
p1343
I3
sVTO_JJR
p1344
I45
sVTO_JJS
p1345
I1
sVTO_JJT
p1346
I19
sVNPS-TL_NP
p1347
I2
sVFW-NN-TL_HVG
p1348
I1
sVBEDZ_RB-TL
p1349
I1
sVJJR-NC_VBN
p1350
I1
sVPPLS_NNS
p1351
I40
sVDO_VBN
p1352
I1
sVVB_OD
p1353
I2
sVAT_AP
p1354
I88
sVJJR_BEN
p1355
I7
sVAT_AT
p1356
I1
sVHVZ_PN
p1357
I38
sVFW-IN-TL_``
p1358
I1
sVNN-TL-HL_NNS$-TL-HL
p1359
I1
sVRB_WDT
p1360
I155
sVWRB_RB+BEZ
p1361
I4
sVDT+BEZ_NN
p1362
I1
sVTO_DTI
p1363
I4
sVNNS$_JJR
p1364
I1
sVTO_DTS
p1365
I2
sVPPSS_RB+CS
p1366
I2
sVAT-TL_VBN-TL
p1367
I1
sVFW-AT_start
p1368
I2
sVDTS_WPO
p1369
I1
sVWDT_PPL
p1370
I3
sVNN$_JJ-TL
p1371
I4
sVDO-TL_``
p1372
I4
sVHVD_PN
p1373
I60
sVNR-TL_ABX
p1374
I1
sVNN-TL_FW-AT-TL
p1375
I1
sVOD_WDT
p1376
I1
sVDTI_VBD
p1377
I81
sVDTI_VBZ
p1378
I47
sV,_NP-TL
p1379
I397
sVJJS-TL_JJ
p1380
I2
sVAT-TL_VB-TL
p1381
I8
sV''_PPO-TL
p1382
I6
sVCC_NN-NC
p1383
I6
sVBED_NR-TL
p1384
I3
sVPP$_RBT
p1385
I1
sVBEDZ_HVD
p1386
I1
sV._VBN
p1387
I1934
sV--_CD
p1388
I36
sVBEZ_RB
p1389
I176
sV--_CC
p1390
I23
sV._VBG
p1391
I643
sV._VBD
p1392
I1447
sVVB-NC_``
p1393
I5
sV._NPS$
p1394
I2
sVFW-UH_UH
p1395
I1
sV._VBZ
p1396
I207
sVBEZ_RP
p1397
I5
sV,-HL_RB-HL
p1398
I3
sVVBN_NPS
p1399
I6
sVAT-HL_VB-HL
p1400
I6
sVBEN_PPS+HVD
p1401
I15
sVVBN_NP$
p1402
I35
sVNP-HL_IN-TL-HL
p1403
I1
sV--_NP-HL
p1404
I1
sVIN_NP+BEZ
p1405
I2
sVNP-TL_CC-TL
p1406
I77
sVBEN_PPS+HVZ
p1407
I10
sVWPS_FW-WDT
p1408
I1
sVDTI-HL_IN-HL
p1409
I3
sVDOD_RBR
p1410
I3
sVVBN-HL_VB-HL
p1411
I1
sVCD-TL-HL_NN-TL
p1412
I1
sV)_CD-HL
p1413
I5
sVBED*_``
p1414
I1
sV''_VB
p1415
I369
sVCS_AP
p1416
I324
sVVBZ_DTS
p1417
I1
sVDO_EX
p1418
I1
sVMD_VB
p1419
I18
sVNN$-TL_CC-TL
p1420
I2
sVHVZ_NNS
p1421
I87
sVNNS_CD$
p1422
I1
sVRB_RBT
p1423
I2
sVRB_RBR
p1424
I15
sVVB-NC_MD*
p1425
I1
sVNNS-HL_)-HL
p1426
I2
sVPPSS-NC_,
p1427
I2
sVTO_JJ
p1428
I1272
sVVBN-TL_UH
p1429
I1
sVJJ-TL_WDT+BEZ-TL
p1430
I1
sVBEG_PPSS+BER
p1431
I2
sVNN-TL_RBR
p1432
I2
sVBEDZ_WRB
p1433
I19
sV)_NP-TL
p1434
I15
sVFW-NN_FW-WDT
p1435
I1
sVABX_BER
p1436
I11
sVNR_CS
p1437
I12
sVABX_BEZ
p1438
I11
sVBEDZ_NN
p1439
I2645
sV``_NP
p1440
I47
sV``_NR
p1441
I1
sV``_NN
p1442
I208
sVNR_CD
p1443
I9
sVNR_CC
p1444
I43
sVBEDZ_NP
p1445
I968
sVBEDZ_NR
p1446
I5
sVVBN-TL_ABX
p1447
I1
sV''_NR
p1448
I46
sV''_NP
p1449
I614
sVBER_AP
p1450
I15
sVNN$_VB
p1451
I7
sV''_NN
p1452
I2797
sVFW-AT-TL_NP$
p1453
I2
sVHVG_,
p1454
I45
sVHVG_*
p1455
I13
sVQL_NNS
p1456
I229
sVVBG-TL_BER-TL
p1457
I1
sVQL_NN$
p1458
I12
sVAT-NC_VBN-NC
p1459
I1
sVPPSS+BEM_WDT
p1460
I9
sVNP$-TL_AT
p1461
I17
sVWRB_IN
p1462
I106
sV''_FW-AT+NP-TL
p1463
I2
sVAT_JJ-NC
p1464
I2
sVPPSS+BEM_VBZ
p1465
I2
sVFW-VBG_FW-BER
p1466
I1
sV._WRB-TL
p1467
I1
sVNPS_CS
p1468
I35
sVWRB-TL_``
p1469
I7
sVNPS_CD
p1470
I39
sVNPS_CC
p1471
I58
sVDTI_NNS-TL
p1472
I1
sVVBZ_EX
p1473
I23
sVRB-HL_NN-HL
p1474
I6
sVNN_OD-TL
p1475
I4
sVDTI_BE
p1476
I34
sVNNS-TL_VBG-TL
p1477
I15
sVFW-NNS-TL_FW-JJ-TL
p1478
I4
sV,_FW-RB
p1479
I5
sV:_NPS
p1480
I2
sVPPSS_PPSS
p1481
I1
sVHVD_NP
p1482
I714
sVVB_NN-TL
p1483
I40
sVVB-HL_CD-HL
p1484
I2
sV``_CD
p1485
I15
sVWDT_PPS+BEZ
p1486
I2
sV--_VB-TL
p1487
I1
sVWRB_JJT
p1488
I4
sVJJR-HL_VBZ-HL
p1489
I1
sVDT_QL
p1490
I11
sVWRB_JJR
p1491
I3
sVJJ-TL-HL_:
p1492
I1
sVRB-NC_NN-NC
p1493
I2
sVDOD*_PP$$
p1494
I1
sVPPSS_ABN
p1495
I53
sVPPO_''
p1496
I8
sVQLP_start
p1497
I1
sVFW-NNS-TL_``
p1498
I1
sVPPSS_ABX
p1499
I2
sVCS_BEDZ*
p1500
I3
sVNNS$_PP$
p1501
I17
sVHVN_HV
p1502
I73
sVFW-JJR_FW-IN
p1503
I1
sVPPS_NNS-TL
p1504
I8
sVNN+HVZ_``
p1505
I1
sVJJR-HL_BE-HL
p1506
I1
sVWPS+HVD_,
p1507
I1
sVPPSS+MD_HVD*
p1508
I1
sVDOD*-TL_UH-TL
p1509
I1
sV''_JJ-NC
p1510
I8
sVNN_NR-TL
p1511
I4
sVNP+HVZ_start
p1512
I1
sV*_--
p1513
I28
sVVBN_WDT
p1514
I3
sVNNS-NC_VBG-NC
p1515
I2
sV--_PP$$
p1516
I3
sVCC_CD-TL
p1517
I49
sVVBN_MD+HV
p1518
I3
sVWRB_PPL
p1519
I4
sVWRB_PPO
p1520
I83
sVFW-CD_FW-IN
p1521
I5
sVPPSS+MD_VB
p1522
I18
sVNNS-HL_CS-HL
p1523
I1
sVNNS$_VBD
p1524
I1
sVNNS$_VBG
p1525
I4
sVRB_NP
p1526
I495
sVBEDZ*_PPS
p1527
I73
sVJJ_HVZ
p1528
I50
sV.-HL_CD-HL
p1529
I227
sVVBG+TO_PPSS
p1530
I5
sVDTX_WPO
p1531
I1
sVJJ_HVN
p1532
I12
sVPN$_IN
p1533
I45
sVJJ_HVD
p1534
I57
sVJJ_HVG
p1535
I10
sVNPS-TL_JJ-TL
p1536
I26
sVWDT_BEG
p1537
I4
sVVBG_DTX
p1538
I1
sVWDT_BEM
p1539
I1
sVWDT_BEN
p1540
I1
sVWDT_BER
p1541
I3
sVRN_RP+IN
p1542
I2
sVWDT_BEZ
p1543
I36
sV''_FW-NN-NC
p1544
I2
sV,_PPLS
p1545
I42
sV''_MD+HV
p1546
I1
sVVBN_UH
p1547
I1
sVNN-TL_NNS$-TL
p1548
I38
sVDTS_BER
p1549
I26
sVPP$-HL_RB+BEZ-HL
p1550
I1
sVIN_CD
p1551
I1832
sVDTS_BEZ
p1552
I1
sVIN_CC
p1553
I2027
sVCC_NPS
p1554
I124
sVDTS_BED
p1555
I9
sVDTI-TL_IN-TL
p1556
I1
sVNNS-NC_IN
p1557
I4
sVMD*_PN
p1558
I14
sVIN_CS
p1559
I772
sVVBN-HL_IN-HL
p1560
I4
sVCC_NP$
p1561
I18
sVBEG_AP
p1562
I2
sVDOD_NN-TL
p1563
I9
sVTO-TL_WQL-TL
p1564
I3
sVJJ-HL_NP$-HL
p1565
I2
sVRBR_*
p1566
I5
sV(-HL_,-HL
p1567
I1
sVRBR_(
p1568
I6
sVRBR_,
p1569
I24
sVJJ_UH
p1570
I3
sVJJT_IN
p1571
I31
sVNN-TL_HVG
p1572
I1
sVNN-TL_HVD
p1573
I3
sVNP_JJ
p1574
I749
sVNN-TL_HVN
p1575
I1
sVNR_PP$
p1576
I52
sVNN-TL_HVZ
p1577
I1
sV._--
p1578
I6
sV``_PPS
p1579
I14
sVFW-VBN_FW-NN
p1580
I2
sVDO*_CC
p1581
I13
sVFW-JJ_FW-QL
p1582
I1
sVABX_RB
p1583
I5
sVRB_NR-TL
p1584
I4
sVDO*_CS
p1585
I1
sV.-HL_)-HL
p1586
I7
sVIN_FW-UH
p1587
I1
sVABX_RP
p1588
I2
sV:_DOZ
p1589
I1
sVEX_BED
p1590
I1
sVFW-IN_'
p1591
I1
sV:_DOD
p1592
I2
sVNP-TL_JJT
p1593
I2
sVNR_PPO
p1594
I31
sVPPSS+BEM_NN
p1595
I2
sVBER_WRB
p1596
I15
sVAT-NC_WDT+BEZ-NC
p1597
I1
sVCS_RN
p1598
I2
sVIN-HL_JJ
p1599
I1
sVNN-HL_RB-HL
p1600
I1
sV.-NC_NP-NC
p1601
I1
sV--_FW-NN$
p1602
I1
sVFW-NN$_FW-NN
p1603
I5
sVAT-NC_IN-NC
p1604
I4
sVPN_EX
p1605
I4
sVBEZ_FW-NN-TL
p1606
I2
sVDOD*_DTS
p1607
I1
sVMD-TL_WPS-TL
p1608
I1
sVABN-TL_CC-TL
p1609
I4
sVFW-NNS-TL_FW-IN+AT-T
p1610
I2
sVNP-TL_JJ-TL-HL
p1611
I2
sV,-HL_NN-HL
p1612
I26
sVCD-HL_NN-TL
p1613
I1
sVEX_BER
p1614
I5
sVRP_``
p1615
I7
sVFW-PPL+VBZ_FW-WPS
p1616
I1
sVNNS_BEZ
p1617
I11
sVFW-NP-TL_NP$-TL
p1618
I1
sVNN-NC_AT-NC
p1619
I28
sVNNS_BER
p1620
I131
sVNNS_BEN
p1621
I20
sVPPSS+HVD_WRB
p1622
I6
sVNNS_BED
p1623
I93
sVFW-*_FW-NN
p1624
I1
sVNNS_BEG
p1625
I4
sVNN-TL_JJT-TL
p1626
I4
sVNP-TL_JJ-TL
p1627
I874
sVWPS_VB
p1628
I14
sVWP$_IN
p1629
I15
sVPPLS_NPS
p1630
I5
sVNR_JJ-TL
p1631
I2
sVIN-HL_,-HL
p1632
I2
sVVB_IN
p1633
I41
sVHVZ_RB
p1634
I75
sVVBN_JJR
p1635
I10
sVVBN_JJT
p1636
I5
sVNN-TL_MD
p1637
I1
sVPPL_WDT
p1638
I1
sVRB-HL_IN-HL
p1639
I4
sVDTI_DOZ
p1640
I3
sV)_BEDZ
p1641
I1
sVAT-HL_VBG-HL
p1642
I13
sVBED_WDT
p1643
I49
sVDO_PPSS+MD
p1644
I10
sVDTI_DOD
p1645
I3
sVJJS-HL_start
p1646
I1
sVHVD_NR
p1647
I2
sVPP$_DT+BEZ
p1648
I11
sVEX_WPS
p1649
I1
sVHVD_NN
p1650
I690
sVIN_PPLS
p1651
I82
sVPPSS_MD-TL
p1652
I1
sVPN+BEZ_start
p1653
I2
sVBER*_start
p1654
I2
sVBEZ_PN
p1655
I72
sVQL-TL_CC
p1656
I1
sV--_AP
p1657
I10
sVWRB_WPS
p1658
I1
sV--_AT
p1659
I4
sVWPS_NR-TL
p1660
I2
sVDT-HL_start
p1661
I2
sVNP+HVZ-NC_BEZ
p1662
I1
sVPP$_NP-TL
p1663
I1
sVFW-NN_start
p1664
I6
sVOD-TL_VBG
p1665
I1
sVNR_WRB
p1666
I1
sVOD-TL_VBN
p1667
I1
sVDO-HL_NNS-HL
p1668
I3
sVNN_QL
p1669
I16
sVFW-NN_NP$
p1670
I1
sVBED_--
p1671
I11
sVVBD_DT
p1672
I128
sV(_NN-TL
p1673
I133
sVNNS_QLP
p1674
I2
sVQL_NP
p1675
I39
sVQL_NR
p1676
I3
sVBED_NPS-TL
p1677
I2
sVQL_NN
p1678
I502
sVNR-TL_RB-TL
p1679
I1
sVTO+VB_NR
p1680
I1
sVCC_NN-TL
p1681
I447
sVPPS_NPS
p1682
I4
sVPP$_NNS
p1683
I43
sVPN_BEDZ
p1684
I80
sVNN$_BEZ
p1685
I2
sVCS_PPL
p1686
I53
sVCS_PPO
p1687
I485
sVCS_BEZ*
p1688
I2
sVPP$_TO+VB
p1689
I1
sVBED_NP-TL
p1690
I14
sVDT$_CD
p1691
I4
sVCS_PPS
p1692
I4
sV(-HL_NN-TL-HL
p1693
I1
sVJJ-HL_*-HL
p1694
I1
sVVBN_NPS-TL
p1695
I1
sV)_AP
p1696
I8
sV)_AT
p1697
I1
sVTO_HV
p1698
I268
sV,_FW-WDT
p1699
I3
sVDTS_IN
p1700
I1052
sVDOZ_NP
p1701
I23
sVQL-NC_BER-NC
p1702
I1
sV``_HV
p1703
I4
sVPP$_PPS+BEZ
p1704
I10
sVNN_AT-TL
p1705
I4
sVDOZ_NN
p1706
I113
sVBED_,
p1707
I104
sVBED_)
p1708
I7
sVFW-RB-TL_UH-TL
p1709
I1
sVDT_WDT+BEZ
p1710
I7
sVPP$-NC_CS-NC
p1711
I1
sV(_OD
p1712
I1
sV._MD*
p1713
I6
sVNP-HL_VBG-HL
p1714
I1
sVVBD-TL_WPS-TL
p1715
I2
sVRB-TL_AT
p1716
I1
sVTO_:
p1717
I12
sVNNS_DO
p1718
I9
sV''_FW-NNS-NC
p1719
I1
sVTO_'
p1720
I1
sVCD_HV
p1721
I49
sVNNS_DT
p1722
I10
sVPPSS+HV_UH
p1723
I1
sVHVZ_FW-NN-TL
p1724
I3
sVTO_,
p1725
I455
sVTO_*
p1726
I158
sVTO_(
p1727
I5
sVTO_)
p1728
I15
sV,_WQL
p1729
I1
sVOD-TL_JJ-TL
p1730
I2
sVNN-TL_RP
p1731
I5
sVFW-IN-TL_FW-JJ-TL
p1732
I4
sVWPS-TL_VBN
p1733
I1
sVABX_HVZ
p1734
I1
sVNN-TL_RB
p1735
I19
sVJJ-NC_NN
p1736
I6
sV``_HVD
p1737
I16
sVNP$_PP$
p1738
I2
sVVBZ-NC_RB-NC
p1739
I2
sVNP$-TL_CC-TL
p1740
I8
sVRB-HL_start
p1741
I14
sVPP$_``
p1742
I114
sVJJ_HV
p1743
I108
sV)-HL_IN-HL
p1744
I1
sVHVG_NNS
p1745
I17
sV*_JJT
p1746
I2
sVNN_NN$
p1747
I887
sV*_JJR
p1748
I1
sVTO_PPL
p1749
I30
sVTO_PPO
p1750
I519
sVNP_--
p1751
I115
sVRB-NC_VBZ
p1752
I1
sVTO_PPS
p1753
I6
sV``_NP-HL
p1754
I1
sV,-HL_IN-HL
p1755
I1
sV._NP-NC
p1756
I1
sVBE_MD
p1757
I3362
sVNP_FW-JJ
p1758
I1
sVEX-NC_IN
p1759
I1
sVRB-NC_VBG
p1760
I1
sVBEZ_MD
p1761
I3
sVPPO_BEN
p1762
I1
sVJJR_CD
p1763
I9
sVPPO_BED
p1764
I1
sVBE_start
p1765
I24
sVCC-TL_NPS
p1766
I2
sVTO_PP$
p1767
I3
sVDOD_DTS
p1768
I2
sVNN_HVN
p1769
I9
sVNN_HVD
p1770
I73
sVNN_HVG
p1771
I20
sVAT_``
p1772
I493
sVNN_HVZ
p1773
I33
sVNN_NNS
p1774
I362
sVHVG_NN$
p1775
I1
sVJJR_EX+BEZ
p1776
I1
sVVBN-HL_HV-HL
p1777
I1
sVWDT_NNS
p1778
I520
sVWPS_NP$
p1779
I1
sVBED_NP$
p1780
I2
sVPN_``
p1781
I53
sV(-HL_CC
p1782
I7
sVTO_FW-NN-TL
p1783
I3
sVBEM_,
p1784
I3
sVBEDZ_--
p1785
I30
sVPPS-NC_BEZ-NC
p1786
I1
sVMD_NNS-TL
p1787
I41
sVMD_FW-NNS
p1788
I2
sVEX_IN
p1789
I7
sVPPS+HVD_CS
p1790
I21
sV:_CS
p1791
I15
sVPPSS_DO*
p1792
I21
sV:_CD
p1793
I8
sVNRS-TL_AP
p1794
I1
sVPPS+HVD_CC
p1795
I4
sV:_CC
p1796
I3
sVCC_VB
p1797
I578
sVJJ_JJT
p1798
I86
sVJJ_JJS
p1799
I24
sVJJ_JJR
p1800
I79
sVNN-NC_JJ-NC
p1801
I4
sVPPSS_DOD
p1802
I60
sVPPS+MD_--
p1803
I2
sV._FW-NN-NC
p1804
I3
sV''_FW-WDT
p1805
I1
sVPP$_NN$
p1806
I1
sVNP$_WRB
p1807
I16
sVAT-NC_``
p1808
I1
sVJJ-TL-HL_:-HL
p1809
I1
sVNP-TL_NP$
p1810
I24
sVQL_PPLS
p1811
I6
sVVBG-HL_IN
p1812
I1
sVVB_WDT+DO+PPS
p1813
I1
sVPP$-TL_BEZ-TL
p1814
I3
sVCC_NN-HL
p1815
I3
sVPN+BEZ_JJ
p1816
I1
sVNN+BEZ_NN
p1817
I2
sVBED_NPS
p1818
I63
sVRB$_PN
p1819
I9
sVCS_FW-NN
p1820
I2
sVBE_PPSS+MD
p1821
I52
sVCC_VBZ-TL
p1822
I1
sV''_VB-TL
p1823
I21
sVPPLS_IN
p1824
I73
sVNNS-TL_AP-TL
p1825
I2
sVVB-HL_start
p1826
I16
sVHVZ_IN
p1827
I1
sVIN_EX
p1828
I2
sVBER_PP$$
p1829
I1
sVMD*_VB
p1830
I2
sVVB_NN+MD
p1831
I2
sVCD_NIL
p1832
I1
sVNPS_start
p1833
I21
sVWPS_PP$$
p1834
I1
sVNN+HVD-TL_start
p1835
I1
sVJJ_MD*
p1836
I1
sVAT_*
p1837
I316
sVAT_(
p1838
I109
sVAT_)
p1839
I69
sV,_BEZ*
p1840
I2
sVRB-HL_---HL
p1841
I3
sVAT_'
p1842
I9
sVIN_DT
p1843
I402
sVAT_:
p1844
I167
sVHV*_PPSS
p1845
I30
sVCS_NNS
p1846
I1081
sVNP_HV
p1847
I12
sVVBG_BED*
p1848
I3
sVPN_PPO
p1849
I20
sVVBG_CC
p1850
I1042
sVVBG_CD
p1851
I85
sVPN_WDT
p1852
I32
sVVBN_DOD
p1853
I1
sV``_WDT
p1854
I10
sVFW-NN-TL_IN
p1855
I6
sVNPS_``
p1856
I8
sVFW-NN_NN
p1857
I4
sVFW-NN_NP
p1858
I2
sVBE_PPSS
p1859
I28
sV._VB
p1860
I1292
sVCS-NC_NNS-NC
p1861
I1
sVVBG-TL_,
p1862
I4
sVVBG-TL_(
p1863
I1
sVCC-TL_VBG-TL
p1864
I5
sVNP-HL_NP
p1865
I1
sVTO_--
p1866
I43
sVVBG-TL_:
p1867
I1
sVDTS_NN-TL
p1868
I3
sVBER_WPS
p1869
I189
sVPPS_VBN
p1870
I55
sV(_NP
p1871
I267
sVNNS-TL_PPO-TL
p1872
I1
sVVBG_:-HL
p1873
I1
sVPPS_VBD
p1874
I326
sVPPS_VBG
p1875
I37
sVPPS_VBZ
p1876
I35
sVBEM_WDT
p1877
I2
sV(_NN
p1878
I580
sVBER_WPO
p1879
I2
sVJJS_BEG
p1880
I1
sV``_''
p1881
I5
sVJJS_BEZ
p1882
I1
sVPPO-HL_IN-HL
p1883
I1
sVJJS_BER
p1884
I1
sVNR-TL_VB
p1885
I6
sVTO_NP-TL
p1886
I18
sV(_HVD
p1887
I1
sVWDT_start
p1888
I332
sVBEN-TL_DT-TL
p1889
I1
sVABL_RB
p1890
I11
sVNN-TL_FW-NP-TL
p1891
I1
sVRBT_QL
p1892
I4
sV--_HVD
p1893
I5
sV''_NNS-HL
p1894
I3
sVVB+RP_start
p1895
I2
sVPPSS_UH
p1896
I6
sVRP-HL_VB-HL
p1897
I5
sVPPLS_VBG
p1898
I28
sVPPLS_VBD
p1899
I44
sVPPLS_VBN
p1900
I10
sV--_HVZ
p1901
I3
sVPP$$_ABN
p1902
I1
sVFW-AT_FW-VB
p1903
I1
sVJJR_VBN
p1904
I20
sVPP$$_CC
p1905
I8
sVJJR_VBD
p1906
I43
sVFW-VBD-TL_``
p1907
I1
sVJJR_VBG
p1908
I28
sVVB_VB+TO
p1909
I4
sVEX+BEZ_NN
p1910
I5
sVPP$$_CS
p1911
I28
sVRP-NC_NN-NC
p1912
I1
sVFW-RB_FW-RB
p1913
I1
sVMD-NC_NN-NC
p1914
I1
sVABN_PPO
p1915
I90
sVNN$_WP$
p1916
I1
sVRBR_PPS
p1917
I13
sVVBN_NP+HVZ
p1918
I5
sVDOZ_start
p1919
I27
sVNP$_PPO
p1920
I5
sVNR_(
p1921
I1
sVABN_WDT
p1922
I15
sVABN_PPS
p1923
I16
sVRBR_PPO
p1924
I31
sVPN_CC
p1925
I125
sVNN-TL_OD
p1926
I25
sVABN_HVD
p1927
I9
sVABN_PP$
p1928
I2
sVABN_HVG
p1929
I1
sV--_NN-NC
p1930
I2
sVWRB-NC_PPO-NC
p1931
I1
sVPN_CS
p1932
I239
sVDT_BEZ*
p1933
I6
sVDT+BEZ_JJ
p1934
I1
sVJJT-HL_IN-HL
p1935
I1
sVOD_VB
p1936
I9
sVRB+CS_QL
p1937
I3
sVFW-IN+AT-TL_FW-AT+NN-TL
p1938
I1
sVNNS-TL_BER
p1939
I1
sVNNS-TL_start
p1940
I19
sVNNS-TL_BEZ
p1941
I5
sVPPLS_PPSS
p1942
I10
sV'_VB
p1943
I6
sVNN$-TL_FW-AT-TL
p1944
I1
sVAP_WDT
p1945
I25
sVPPO_VB-TL
p1946
I2
sVJJS-TL_WRB
p1947
I1
sV''_PPO-NC
p1948
I1
sVTO_CD-TL
p1949
I7
sVWDT-NC_JJ-NC
p1950
I1
sVVB-NC_NN
p1951
I1
sVBEZ_VB
p1952
I42
sVAT-HL_``
p1953
I1
sVRB+BEZ-HL_start
p1954
I1
sVBE_PPLS
p1955
I1
sVNP$-TL_NN-TL
p1956
I30
sVNR_WP$
p1957
I1
sVWPO-TL_,
p1958
I1
sVNP_BER*
p1959
I1
sVPPO-TL_IN-TL
p1960
I5
sVRB-NC_PPSS-NC
p1961
I1
sVNR_WPS
p1962
I1
sVDO-TL_WPS-TL
p1963
I1
sVAT-TL-HL_IN-TL-HL
p1964
I1
sVCD-TL_NNS-TL
p1965
I39
sVNNS$-TL_BEDZ
p1966
I1
sV'_PPS+BEZ
p1967
I1
sVVBZ-HL_VBG-HL
p1968
I1
sVDT-NC_BEDZ-NC
p1969
I2
sVJJ_WRB
p1970
I153
sVNNS_NN$-TL
p1971
I33
sVDO_RBR
p1972
I1
sVNNS-TL_VBG
p1973
I8
sVTO-NC_WRB
p1974
I1
sV''_PPSS+HV
p1975
I1
sVNNS-TL_VBD
p1976
I5
sV``_JJ
p1977
I158
sVNNS-TL_VBN
p1978
I8
sV''_FW-UH
p1979
I1
sVNNS-TL_VBZ
p1980
I1
sV)_VB+VB-NC
p1981
I1
sVPPSS_'
p1982
I12
sVRB_''
p1983
I44
sVPP$-HL_WDT-HL
p1984
I1
sVFW-WDT_FW-VB
p1985
I1
sVJJR-TL_``
p1986
I2
sVPPSS_)
p1987
I12
sVPPSS_(
p1988
I25
sVPPSS_*
p1989
I8
sVAT-TL_HVZ-TL
p1990
I2
sVDTI_WDT
p1991
I7
sVIN-TL_NP$-TL
p1992
I1
sVPPS_BER
p1993
I1
sVPPSS_:
p1994
I26
sVTO_NP
p1995
I224
sVTO_NR
p1996
I29
sVBEN_PPSS+HV
p1997
I41
sV)_CD
p1998
I519
sVNP$_PPSS+BER
p1999
I2
sVFW-VB_,
p2000
I2
sVEX+HVZ_--
p2001
I1
sVRB_BER*
p2002
I2
sVDOZ_AP
p2003
I3
sV'_NNS-HL
p2004
I2
sVTO_NN
p2005
I2565
sVFW-RB_(
p2006
I1
sVFW-RB_,
p2007
I4
sVNP$-TL_NP
p2008
I1
sV._FW-OD-TL
p2009
I1
sVFW-AT_FW-CS
p2010
I1
sVJJ_NR$-TL
p2011
I2
sV,_PN-NC
p2012
I1
sVNR_OD
p2013
I4
sV)_NN-TL
p2014
I73
sVMD_''
p2015
I39
sVNN$_RB
p2016
I5
sVAP_``
p2017
I39
sVOD-HL_,-HL
p2018
I1
sVVBN-HL_,-HL
p2019
I1
sVVBN-TL-HL_VBZ-HL
p2020
I1
sVHVZ*_EX
p2021
I1
sVJJ-TL_''
p2022
I2
sVUH_--
p2023
I26
sVBED_DOD
p2024
I1
sVNN-TL_VBN
p2025
I53
sVQL_PPSS+BER
p2026
I18
sVNN-TL_ABN
p2027
I5
sVNN_NNS$-TL
p2028
I6
sVPN_DTS
p2029
I1
sV''_BE
p2030
I10
sV:_BEDZ
p2031
I6
sVNNS_BE
p2032
I49
sVPN_DTI
p2033
I4
sV)_AT-TL
p2034
I3
sVCD_NRS
p2035
I1
sVNN-TL_VBZ
p2036
I21
sVNN-TL_ABX
p2037
I2
sVPPSS_NNS
p2038
I270
sVCD_NR$
p2039
I4
sVJJ-HL_:
p2040
I1
sVBED_''
p2041
I17
sVVBN_PPSS+MD
p2042
I2
sVJJ-HL_,
p2043
I1
sVJJ-HL_)
p2044
I3
sVDTI_``
p2045
I15
sVNPS_NN$-TL
p2046
I1
sVJJ_JJ
p2047
I3001
sVDO*_NPS
p2048
I2
sVJJT_VB
p2049
I5
sVPPL_IN
p2050
I272
sVDTI_NN
p2051
I54
sVNNS-HL_)
p2052
I3
sVHV_NN-TL
p2053
I17
sVIN_PN-TL
p2054
I1
sVCS_PP$$
p2055
I1
sV,_FW-VB
p2056
I6
sVWDT_NP$
p2057
I1
sVDTI_NP
p2058
I9
sVNN-HL_AT-HL
p2059
I165
sVNN-HL_,
p2060
I4
sVJJT-HL_NN-HL
p2061
I1
sVVBG-TL_``
p2062
I13
sV._NP-HL
p2063
I4
sVNN-HL_'
p2064
I2
sVVB_CC
p2065
I1564
sVNN_NNS-TL
p2066
I65
sVPPSS+BEM_ABN
p2067
I2
sVNN-HL_:
p2068
I1
sVFW-IN+NP-TL_FW-NN-TL
p2069
I2
sVNNS-NC_JJ-NC
p2070
I2
sVBEN_HV
p2071
I649
sVBEN_ABN
p2072
I10
sVDOZ*_CC
p2073
I1
sVCS-HL_JJ-HL
p2074
I4
sVWDT_NPS
p2075
I2
sVNP-TL_VBN
p2076
I13
sVFW-NN-TL_FW-VBD-TL
p2077
I1
sVNP-TL_VBG
p2078
I11
sVNP-TL_VBD
p2079
I20
sVNP-TL_VBZ
p2080
I3
sVNN-HL_)
p2081
I5
sVAT-TL_VBD-TL
p2082
I2
sV''_MD+PPSS
p2083
I1
sVVB-HL_WRB-HL
p2084
I1
sVAT-HL_MD-HL
p2085
I6
sVRB_NN$-TL
p2086
I1
sVVBD_WPO
p2087
I5
sVNP-TL_JJR-TL
p2088
I4
sVVBD_,
p2089
I1503
sVHV_OD-TL
p2090
I1
sVPPS+BEZ_start
p2091
I129
sVVBD_*
p2092
I1
sVVBD_WPS
p2093
I963
sVVBD_'
p2094
I2
sVWRB_NP-TL
p2095
I6
sVFW-JJ_BE
p2096
I1
sV:_AP
p2097
I6
sVDT_BER
p2098
I5
sV*_DT
p2099
I5
sVNNS_start
p2100
I963
sVDT_BEZ
p2101
I117
sVDT_BEG
p2102
I3
sVDT_BED
p2103
I2
sVNN-HL_BE-HL
p2104
I1
sVDT_BEN
p2105
I10
sVBEG_IN
p2106
I169
sV*_DO
p2107
I208
sVWPO_''
p2108
I1
sVABN_NP$
p2109
I1
sVRP-NC_PPO-NC
p2110
I1
sVFW-VBG_WDT
p2111
I1
sVWDT_VB
p2112
I254
sVJJ_NP-NC
p2113
I2
sVNP-TL_NR$
p2114
I1
sVQL-HL_,-HL
p2115
I1
sVQL_DT+BEZ
p2116
I8
sV,_VB+RP
p2117
I1
sVRP_IN
p2118
I14
sVJJ_ABL
p2119
I1
sVNN_NP$-TL
p2120
I12
sVVBN_BEZ*
p2121
I3
sVPPSS+HVD_CS
p2122
I14
sVJJ_ABX
p2123
I72
sVNNS-HL_VBG-HL
p2124
I38
sVPPSS+HVD_CC
p2125
I5
sV--_CD-TL
p2126
I3
sVJJT-TL_NN$-TL
p2127
I1
sV,_BEDZ
p2128
I109
sVVBZ_NP-TL
p2129
I24
sVCS-TL_``
p2130
I1
sV'_start
p2131
I19
sVVBN_QL
p2132
I532
sVAT-TL_VBG-TL
p2133
I1
sVHVD_BEDZ
p2134
I1
sVNN-TL_start
p2135
I416
sV--_PPS+BEZ
p2136
I2
sVPPO_MD*
p2137
I2
sVNPS_ABN
p2138
I10
sVDO-HL_PPSS-HL
p2139
I1
sVWP$_``
p2140
I1
sVPP$_NPS
p2141
I1
sVDT+BEZ_UH
p2142
I1
sVCC_TO
p2143
I1
sVFW-NN-TL_,
p2144
I4
sVCD_NP-TL
p2145
I4
sVFW-NN-TL_(
p2146
I3
sVNN-TL_IN-TL
p2147
I411
sVVB_WPS+MD
p2148
I3
sVUH_VBN
p2149
I1
sVWRB-TL_CC
p2150
I1
sVBEN_HVD
p2151
I760
sVUH_VBD
p2152
I2
sVPP$_AP
p2153
I5
sVUH_VBG
p2154
I3
sVNP_NR
p2155
I10
sVNP_NP
p2156
I7647
sVVBG_AP
p2157
I64
sVPPS_WDT+BEZ
p2158
I4
sVVBG_AT
p2159
I1568
sVPPSS_BEDZ
p2160
I10
sVNNS-TL_CC-TL
p2161
I29
sVNP_NN
p2162
I640
sVCD_PPO
p2163
I39
sVNNS_''
p2164
I92
sVNN_WRB+IN
p2165
I1
sV''_--
p2166
I5
sVIN_NR
p2167
I339
sVABX_VB
p2168
I36
sVVBN_WDT+HVZ
p2169
I2
sVCD_WDT
p2170
I15
sVNN-HL_DT-HL
p2171
I4
sVMD_FW-NN-TL
p2172
I1
sVBEZ_VBN
p2173
I51
sVBEZ_VBD
p2174
I3
sVCD_PP$
p2175
I74
sVPPSS_WDT+BER
p2176
I1
sVBEZ_VBZ
p2177
I26
sVAT_RB+BEZ
p2178
I6
sVPPSS_BED*
p2179
I3
sVRB_BEN
p2180
I168
sVVBN-HL_CS-HL
p2181
I2
sVRB_BEM
p2182
I25
sVRB_BEG
p2183
I37
sVRB_BED
p2184
I364
sVRB_BEZ
p2185
I1161
sV''_DTI
p2186
I4
sVRB_BER
p2187
I549
sVBER-TL_``
p2188
I1
sVIN-HL_IN-HL
p2189
I4
sVTO-NC_BEM-NC
p2190
I2
sVCC-NC_,
p2191
I2
sVWPS_PPSS
p2192
I10
sV''_PPS-NC
p2193
I1
sVFW-VB_FW-*
p2194
I1
sVPP$_start
p2195
I1043
sVNN-HL_NPS$-HL
p2196
I1
sVDOZ*_start
p2197
I1
sV._TO
p2198
I20
sV,_NR-TL
p2199
I48
sVVBG-TL_BEN-TL
p2200
I1
sVWPO_VBG
p2201
I1
sVFW-VB_FW-PPO
p2202
I1
sVFW-VB_FW-PPL
p2203
I1
sVVB_WRB
p2204
I9
sV,_BER
p2205
I60
sVAT_DT+BEZ
p2206
I37
sV,_BEZ
p2207
I205
sVCD_WPS
p2208
I2
sVMD*-HL_start
p2209
I1
sV,_BED
p2210
I48
sV,_BEG
p2211
I8
sVDTS_``
p2212
I13
sV,_BEM
p2213
I3
sV,_BEN
p2214
I27
sVAT-TL_RB-TL
p2215
I2
sVVBG_,-HL
p2216
I1
sVBEM*_PPSS
p2217
I9
sVRP_BEDZ*
p2218
I1
sVNN_HVD*
p2219
I1
sV._NNS$
p2220
I1
sVVB_DOZ*
p2221
I71
sVPPS_DOD*
p2222
I6
sVNN-TL_IN
p2223
I1129
sVBER*_CD
p2224
I1
sVWQL_IN
p2225
I17
sVBEG_``
p2226
I2
sVPN_AP
p2227
I10
sVFW-PP$-TL_FW-NN-TL
p2228
I1
sVNN-TL_DOZ*
p2229
I1
sVDOD*_PN
p2230
I1
sVHV*_,
p2231
I2
sV'_TO
p2232
I1
sVNP$-HL_``
p2233
I1
sVFW-NN-NC_,
p2234
I1
sVNP-HL_MD-HL
p2235
I1
sVQL_JJ
p2236
I48
sVHVD_JJ
p2237
I7
sVVBN_PP$
p2238
I174
sVJJ_WP$
p2239
I37
sVDOD_ABN
p2240
I3
sVJJ-TL_NNS
p2241
I4
sVVBZ_PPSS
p2242
I2
sV,_NP-NC
p2243
I1
sVDTX_NN
p2244
I2
sVJJS_DT
p2245
I2
sVJJ-TL_NN$
p2246
I9
sVHVZ_NN-TL
p2247
I85
sVVB_EX
p2248
I7
sVNP-TL-HL_IN-TL-HL
p2249
I1
sVFW-CC_FW-NN
p2250
I1
sVDOZ_NR-TL
p2251
I1
sVVBN_PPS
p2252
I20
sVNN_UH
p2253
I4
sVJJ_WPS
p2254
I3
sVAT-HL_HVG-HL
p2255
I1
sVPP$-TL_JJ
p2256
I1
sVIN-HL_*-HL
p2257
I1
sVJJ_WPO
p2258
I6
sVFW-IN_FW-VBZ
p2259
I1
sVVBN_PPL
p2260
I21
sVVBN_PPO
p2261
I119
sVDTI_start
p2262
I241
sVRB_DOZ*
p2263
I4
sV._FW-JJ
p2264
I4
sVNR_IN
p2265
I212
sVFW-IN+AT-TL_FW-CC-TL
p2266
I1
sVPPS+HVD_--
p2267
I3
sVAT_BED*
p2268
I1
sV``_DT
p2269
I25
sVHV-TL_*-TL
p2270
I1
sVFW-NNS_DTI
p2271
I1
sVDOD_PN
p2272
I5
sVBEM_'
p2273
I1
sVNN_WRB
p2274
I141
sVWDT-HL_start
p2275
I21
sV,_NR-NC
p2276
I1
sV)_HVD
p2277
I2
sVVBZ-TL_CS
p2278
I1
sVCS_FW-NNS-TL
p2279
I1
sV''_FW-UH-NC
p2280
I1
sVBED_NN-TL
p2281
I21
sVBEDZ_DT
p2282
I304
sVAT_BEDZ
p2283
I1568
sVNP-TL_FW-NN-TL
p2284
I4
sVDTS_MD
p2285
I2
sVBEDZ_DO
p2286
I10
sVMD-HL_WRB-HL
p2287
I3
sVAT_JJT
p2288
I4
sVVBD_VBN-TL
p2289
I1
sVVBD-NC_PPSS-NC
p2290
I8
sVCC-TL_VBN-TL
p2291
I1
sV``_NN$-TL
p2292
I5
sV,_CD-TL
p2293
I255
sV.-HL_JJ-TL-HL
p2294
I1
sV''_PPS
p2295
I28
sV._JJ-NC
p2296
I6
sVCD_NPS
p2297
I1
sV''_PPL
p2298
I28
sV''_PPO
p2299
I513
sVWRB_CS
p2300
I70
sVCD_NP$
p2301
I23
sVPPSS_NNS-TL
p2302
I3
sVVB-HL_NN-HL
p2303
I2
sV''_PP$
p2304
I3
sVWRB_CC
p2305
I281
sVWRB_CD
p2306
I26
sVFW-NN-TL_JJR
p2307
I1
sVVBD_JJT
p2308
I1
sVVBD_JJR
p2309
I7
sVCD-HL_VBZ-HL
p2310
I1
sVVBN_DTI
p2311
I43
sVDTI_HV
p2312
I43
sVBED*_CC
p2313
I1
sVUH-TL_VBN
p2314
I1
sVNP_HVZ
p2315
I5
sVFW-IN-TL_start
p2316
I1
sVUH-TL_VBD
p2317
I1
sVVBG_WDT
p2318
I5
sVNP_QL
p2319
I3
sVNP_HVG
p2320
I2
sVWRB+MD_``
p2321
I1
sVPPL_MD
p2322
I1
sVNP_HVD
p2323
I24
sVVBN_DTS
p2324
I69
sVNP_HVN
p2325
I1
sVDTX_,
p2326
I5
sVFW-NN-TL_PP$
p2327
I2
sVPP$-HL_start
p2328
I2
sVFW-NN-TL_``
p2329
I4
sVVBG_NPS
p2330
I19
sVVBN-HL_NPS-HL
p2331
I1
sVVBG_NP$
p2332
I26
sVHVZ_,
p2333
I143
sVAT_TO-NC
p2334
I1
sVDOZ_NNS-TL
p2335
I2
sVDOZ*_AP
p2336
I1
sVHVZ_:
p2337
I1
sVHVG_start
p2338
I20
sV``_BEDZ*
p2339
I1
sVNP-TL_WRB
p2340
I4
sVHVD_--
p2341
I13
sVVBG_MD
p2342
I3
sVVBN-HL_CD-HL
p2343
I1
sVRN_``
p2344
I1
sV,-HL_OD-HL
p2345
I1
sV--_OD-TL
p2346
I2
sVNP$_CD
p2347
I2
sVNP$_CC
p2348
I104
sVNN-NC_start
p2349
I1
sVNP$_CS
p2350
I101
sVVB-TL_PPS-TL
p2351
I1
sVUH-TL_,
p2352
I2
sVHVD_NNS-TL
p2353
I16
sVPP$_VBN
p2354
I330
sVDTI_ABX
p2355
I1
sVPP$_VBG
p2356
I659
sVNN-HL_NN-HL
p2357
I203
sVPP$_VBZ
p2358
I232
sVNNS-TL_CD-TL
p2359
I36
sV*_JJ
p2360
I14
sVJJ_BER*
p2361
I3
sVDTI_ABN
p2362
I1
sVDOD_start
p2363
I25
sVPP$-TL_CC-TL
p2364
I5
sVFW-NN_FW-NNS
p2365
I1
sVPN+MD_``
p2366
I1
sV._QLP
p2367
I31
sVFW-AT_FW-IN
p2368
I5
sVJJ_JJ-NC
p2369
I1
sVVBN-HL_RB-HL
p2370
I4
sVJJ-HL_WDT+BEZ-HL
p2371
I1
sVPN$_CC
p2372
I2
sVNN-TL_PPSS+BEM
p2373
I2
sVRB_DO
p2374
I99
sVPN$_CS
p2375
I2
sVCD_PPS+BEZ
p2376
I9
sVBE_NP+MD
p2377
I1
sVRB_DT
p2378
I93
sVNR-TL_--
p2379
I1
sVNNS-TL_NP
p2380
I10
sV._IN-NC
p2381
I3
sV*_PPSS
p2382
I17
sV._FW-NNS
p2383
I10
sVNNS-TL_NN
p2384
I6
sVVBD_RB
p2385
I1695
sV--_NR-TL
p2386
I9
sVHVZ_EX
p2387
I31
sVBEM_CC
p2388
I6
sVIN_IN
p2389
I1322
sVVBN_OD
p2390
I8
sVPPS_BE
p2391
I6
sVVBZ_``
p2392
I31
sVCD-HL_IN-HL
p2393
I13
sVPPSS+BER-N_``
p2394
I1
sVJJR_QL
p2395
I219
sVQLP_VBN
p2396
I5
sVJJ_PPSS+BER
p2397
I41
sV,-HL_VBG-HL
p2398
I1
sVQLP_VBD
p2399
I2
sVQL_NNS-TL
p2400
I4
sVQLP_VBZ
p2401
I1
sVJJ_PPSS+BEM
p2402
I65
sVCC_NP$-TL
p2403
I2
sVRBR_QL
p2404
I192
sVCC_--
p2405
I432
sVAT-HL_NNS-HL
p2406
I2
sVPP$_CC
p2407
I894
sVPP$_CD
p2408
I7
sV._FW-NN$
p2409
I1
sVDT_PPS+BEZ
p2410
I4
sVFW-NNS_FW-RB
p2411
I1
sVPP$_CS
p2412
I637
sVPPSS_NP$
p2413
I1
sVNPS$-TL_NP-TL
p2414
I1
sVFW-RB_JJ
p2415
I1
sVMD_PPSS-TL
p2416
I1
sVCC_DTI
p2417
I12
sVBEZ*_,
p2418
I18
sVQL_BEDZ
p2419
I421
sVNN-TL_AP-TL
p2420
I13
sVNN-HL_JJR-HL
p2421
I6
sVVBG-TL_AT
p2422
I34
sVDTS_PPO
p2423
I5
sVFW-NN_JJ
p2424
I14
sVABN_UH
p2425
I1
sVJJ-NC_PPSS+BER-N
p2426
I1
sVDT_''
p2427
I4
sVAP_CS
p2428
I218
sVAP_NN$
p2429
I8
sVQLP_AP
p2430
I1
sVNNS$-NC_CC
p2431
I1
sVQL_BED*
p2432
I5
sVAP_CD
p2433
I126
sVAP_CC
p2434
I550
sVNN-HL_start
p2435
I432
sVPPLS_PPO
p2436
I1
sVAT_JJR+CS
p2437
I1
sV)_--
p2438
I1
sV._''
p2439
I4648
sVVB_NNS-TL
p2440
I35
sV(_JJ
p2441
I68
sVPPSS_WDT
p2442
I530
sV``_CC-TL
p2443
I1
sVPPSS_NPS
p2444
I1
sVIN-HL_VBD-HL
p2445
I2
sVHV_VBN
p2446
I4
sVFW-PP$_FW-BE
p2447
I1
sVHV_VBG
p2448
I2
sVWPO-TL_IN-TL
p2449
I1
sVFW-PPL_,
p2450
I1
sVCD-TL_VBN-TL
p2451
I1
sVABN_VBN
p2452
I48
sVJJ-TL_QL
p2453
I3
sVABN_VBG
p2454
I58
sVIN_NPS-TL
p2455
I2
sVNR-TL_JJ
p2456
I12
sVABN_VBZ
p2457
I38
sVRB_NNS-TL
p2458
I22
sV._RB
p2459
I2830
sV._RN
p2460
I2
sV._RP
p2461
I581
sVRB-TL_,
p2462
I3
sVFW-IN-TL_NP-TL
p2463
I2
sVTO_NNS
p2464
I927
sV''_NNS-TL
p2465
I101
sVNN-HL_DO-HL
p2466
I1
sVPPS_DOD
p2467
I42
sVHVZ-TL_JJ-TL
p2468
I1
sVJJ-HL_NP-HL
p2469
I1
sVPPSS+BEM_CC
p2470
I23
sV:_NNS-TL
p2471
I12
sVPPS_DOZ
p2472
I37
sVRB_PP$$
p2473
I6
sVVB_WPS
p2474
I422
sV'_RB
p2475
I5
sVHVD*_WRB
p2476
I2
sVNPS_WRB
p2477
I5
sVWQL_ABN
p2478
I1
sV,_,
p2479
I72
sVAT_VB-TL
p2480
I1
sV._WDT
p2481
I20
sVABL_PPSS+BER
p2482
I1
sVNN-TL_PPS+BEZ
p2483
I2
sVJJ-TL_AP-TL
p2484
I1
sVWP$_CD
p2485
I1
sVCD-TL_''
p2486
I2
sVWP$_CC
p2487
I18
sVBEZ_NNS-TL
p2488
I26
sVCC_RB-TL
p2489
I1
sVVBN-HL_BEZ-HL
p2490
I3
sVNNS-TL_--
p2491
I1
sVPPS_RBT
p2492
I1
sVNPS-TL_IN-TL
p2493
I3
sVHV_RBR
p2494
I2
sV*_NNS-TL
p2495
I1
sVJJR_AT-TL
p2496
I1
sVVBZ_RB
p2497
I634
sVOD_RP
p2498
I1
sV._FW-VBG
p2499
I2
sVVBZ_RP
p2500
I2
sV._FW-VBN
p2501
I1
sVOD_RB
p2502
I2
sVDT_RBR
p2503
I9
sVDOD_)
p2504
I5
sVIN_WPS+BEZ
p2505
I3
sV''_CD-TL
p2506
I14
sVPPL_PN
p2507
I1
sVCS_:
p2508
I39
sVOD_PP$
p2509
I222
sVCS_'
p2510
I2
sVWPS+BEZ_``
p2511
I6
sVDOD_:
p2512
I1
sVQL_HV
p2513
I31
sVCS_,
p2514
I3002
sVVBG_``
p2515
I113
sVCS_*
p2516
I73
sVCS_)
p2517
I47
sVCS_(
p2518
I72
sVNP$_'
p2519
I1
sVFW-AT-HL_start
p2520
I1
sVNP$_,
p2521
I108
sVNP$_*
p2522
I4
sVNP$_(
p2523
I9
sVNP$_)
p2524
I1
sVIN_NP-TL
p2525
I143
sVNNS-HL_VB-HL
p2526
I15
sVHVN_BEDZ
p2527
I1
sVNP$_:
p2528
I3
sVNNS_NP-TL
p2529
I40
sVPP$$_VBN
p2530
I3
sVPPS+BEZ_NNS
p2531
I1
sVPP$$_VBD
p2532
I7
sVPP$$_VBG
p2533
I1
sVPP$$_VBZ
p2534
I2
sVRB_WRB+BEZ
p2535
I1
sVJJS_BE
p2536
I2
sVHVD_VBN
p2537
I10
sVRBR_HVZ
p2538
I1
sVOD_PPO
p2539
I1
sVAT-HL_IN-HL
p2540
I146
sV''_FW-RB-TL
p2541
I1
sVHVD_VBG
p2542
I9
sVRBR_HVN
p2543
I1
sVNNS-HL_CD-HL
p2544
I23
sVOD_PPS
p2545
I1
sVRBR_HVD
p2546
I17
sVNNS_DTS+BEZ
p2547
I1
sVFW-NNS-TL_FW-NNS-TL
p2548
I1
sVNP$_VB-TL
p2549
I1
sVMD_CD-TL
p2550
I9
sVRP_DO
p2551
I1
sVCD-TL_PP$-TL
p2552
I2
sVRB_HVD*
p2553
I7
sVNNS_BED*
p2554
I1
sVVBD_ABX
p2555
I29
sVCS_IN
p2556
I152
sVNPS-NC_,
p2557
I1
sVNN_WPO
p2558
I10
sVRB_EX+HVZ
p2559
I2
sVDOD_RB
p2560
I71
sVFW-NN_--
p2561
I2
sVDO_MD
p2562
I193
sVHVD_FW-VBG
p2563
I1
sVFW-WDT_FW-JJ
p2564
I1
sVVBD_ABN
p2565
I54
sVFW-NNS_FW-IN+AT
p2566
I1
sVNN_WPS
p2567
I2
sVWDT_PPSS
p2568
I3
sVPPS_OD-TL
p2569
I1
sVNN-TL_CD-TL
p2570
I47
sV,-HL_DO-HL
p2571
I1
sVNN_WP$
p2572
I125
sVAT_,
p2573
I5372
sVMD_DTS
p2574
I28
sVMD_DTX
p2575
I1
sVDTS_CS
p2576
I170
sVNNS_BEDZ
p2577
I11
sVBED_HV
p2578
I1
sVBEZ_FW-VBN
p2579
I1
sVMD_DTI
p2580
I10
sVDTS_CC
p2581
I100
sV,_NNS$-NC
p2582
I1
sVIN-TL_UH-TL
p2583
I5
sVHVZ_``
p2584
I5
sVABL_VBD
p2585
I13
sVABL_VBG
p2586
I7
sV,_ABX
p2587
I9
sVRBR_WPS
p2588
I2
sVNN-TL-HL_start
p2589
I45
sVABL_VBN
p2590
I12
sV(_ABN
p2591
I1
sVVBN-TL_JJ-TL
p2592
I4
sVNN$-TL_IN
p2593
I24
sVABL_VBZ
p2594
I2
sV,_ABN
p2595
I159
sVWDT+DO+PPS_``
p2596
I1
sVCD_NR
p2597
I3
sVCD_NP
p2598
I643
sVOD-TL_NP
p2599
I5
sVNNS_NR
p2600
I39
sVNNS_NP
p2601
I488
sVNNS_NN
p2602
I5985
sV(_PN-TL
p2603
I1
sV(_RBR
p2604
I6
sVWRB_BEG
p2605
I1
sVOD-TL_NN
p2606
I2
sVJJ-HL_QL-HL
p2607
I1
sVCD_NN
p2608
I502
sVWRB_BEN
p2609
I4
sVPPS+BEZ_DT
p2610
I1
sVNR_PPSS+BEM
p2611
I2
sVNNS$_JJ-TL
p2612
I2
sVWRB_AP
p2613
I6
sVNP$_DOD
p2614
I2
sVRB-HL_JJ-HL
p2615
I1
sVNP$_DOZ
p2616
I2
sVNP-HL_NN-HL
p2617
I2
sVBEG_VB
p2618
I10
sVJJ_NP
p2619
I96
sVJJ_NR
p2620
I11
sV,_DOZ-TL
p2621
I1
sV''_UH-NC
p2622
I4
sVJJT_RB
p2623
I2
sVVBZ_MD
p2624
I1
sVNNS_FW-NNS
p2625
I2
sVJJ_NN
p2626
I938
sVJJT_NP$
p2627
I22
sVABL_WDT
p2628
I1
sVVBG_CS
p2629
I432
sVRP-NC_NN
p2630
I1
sVDTI_JJ
p2631
I9
sVBED*_EX
p2632
I2
sVHVZ_ABN
p2633
I2
sVFW-UH-TL_``
p2634
I1
sVABX_IN
p2635
I228
sVNN-TL_WDT
p2636
I19
sVABN_JJ
p2637
I27
sVPPSS+MD_WRB
p2638
I2
sVVBG_NRS
p2639
I1
sVPPSS+BEM_RB
p2640
I4
sVCC-TL_NNS
p2641
I1
sV.-NC_NN-NC
p2642
I3
sVWPS_NPS
p2643
I35
sVBEN_DT
p2644
I1
sVVB_FW-NNS
p2645
I2
sVRB-NC_IN
p2646
I2
sVFW-DT+BEZ_start
p2647
I1
sVRB-HL_VBG-HL
p2648
I2
sVPN_PPS
p2649
I2
sV(_WDT
p2650
I3
sVPPSS+BER_CD
p2651
I1
sVPPSS+BER_CC
p2652
I14
sVDTX_NNS
p2653
I1
sVNN-NC_``
p2654
I30
sVNP$_AT
p2655
I62
sVPPSS+BER_CS
p2656
I37
sVWPO_NN
p2657
I78
sV``_:
p2658
I437
sVPPSS+MD_NP
p2659
I2
sVEX_CD
p2660
I6
sVFW-NN_DTI
p2661
I1
sV:-TL_CD-TL
p2662
I22
sV*_NN+BEZ-TL
p2663
I1
sV``_)
p2664
I11
sV``_(
p2665
I37
sV``_*
p2666
I4
sV``_,
p2667
I1093
sVJJR-TL_AT
p2668
I3
sVMD_NNS-NC
p2669
I1
sVPPSS+MD_NN
p2670
I16
sV``_'
p2671
I1
sVWPO_NP
p2672
I6
sVWDT_RP
p2673
I23
sVABN_QL
p2674
I14
sVNN-HL_VBZ-HL
p2675
I17
sVPN$_start
p2676
I3
sVWDT_RB
p2677
I113
sVBE_WPS+MD
p2678
I4
sVNN_VB+PPO
p2679
I1
sV,_VB-NC
p2680
I1
sVWPS_NNS
p2681
I969
sVDOZ_--
p2682
I1
sVUH_PPO
p2683
I3
sVPN$_AT
p2684
I1
sVPPSS+HVD_PPO
p2685
I1
sVDTS_ABN
p2686
I68
sVBEG_NN-TL
p2687
I1
sVDTS_ABX
p2688
I7
sVNP_NN$-TL
p2689
I9
sVPPS+HVZ_NNS
p2690
I2
sVFW-JJ_FW-PPO
p2691
I1
sVPPLS_CC
p2692
I2
sVCD_VBG
p2693
I116
sVCD_VBD
p2694
I315
sVNP$-HL_NN-TL
p2695
I2
sVDT_start
p2696
I1633
sVPPLS_CS
p2697
I1
sVCD_VBZ
p2698
I70
sV.-HL_VBN-HL
p2699
I6
sV''_VBN-NC
p2700
I1
sVFW-JJ_FW-PP$
p2701
I1
sVFW-IN_FW-IN
p2702
I1
sV*_HV
p2703
I44
sVNNS-TL_IN-TL
p2704
I134
sVCC_BEDZ
p2705
I24
sVJJ_--
p2706
I120
sVRB_WQL
p2707
I49
sVRBR_OD
p2708
I1
sVIN-NC_NN-NC
p2709
I4
sVFW-VB_VBG
p2710
I1
sVNN_RB-NC
p2711
I1
sVIN-HL_NP-HL
p2712
I10
sV._JJT
p2713
I36
sVTO_DT+BEZ
p2714
I1
sVAT-HL_BE-HL
p2715
I1
sVIN-HL_QL-HL
p2716
I1
sVNN_PPO
p2717
I131
sVPPS+BEZ-HL_start
p2718
I1
sVBEN_*
p2719
I64
sVBEN_(
p2720
I1
sVNN_PPS
p2721
I4
sVABL_NP
p2722
I1
sVNN-NC_IN
p2723
I11
sVBEN_,
p2724
I11
sVAP_NPS
p2725
I5
sVFW-NN-TL_CC
p2726
I1
sVPPSS+HVD_start
p2727
I15
sVNN_PP$
p2728
I8636
sVAP_AT
p2729
I3007
sVAP_AP
p2730
I129
sVAP_NP$
p2731
I12
sVIN_PP$$
p2732
I10
sVABN_PPSS+HV
p2733
I1
sVAP_HVN
p2734
I17
sVCC_FW-NN
p2735
I15
sVNR_NN$-TL
p2736
I1
sVAP_HVG
p2737
I2
sVAP_HVD
p2738
I42
sVNP-TL-HL_IN-HL
p2739
I2
sVVBD_QL
p2740
I7
sVWRB_RB-NC
p2741
I1
sVAP_HVZ
p2742
I28
sVAT-HL_WDT-HL
p2743
I2
sVWPS+BEZ-NC_IN
p2744
I1
sVDTS_BEN
p2745
I1
sVRBR+CS_AT
p2746
I1
sV---HL_NN-HL
p2747
I13
sVAT-TL_--
p2748
I2
sV--_NNS
p2749
I488
sVJJ-HL_IN
p2750
I1
sVVB+PPO_--
p2751
I3
sVMD_CD
p2752
I58
sVMD_CC
p2753
I289
sVNNS_IN-TL
p2754
I1
sVBEZ-HL_PN-HL
p2755
I1
sVBEZ_RBR
p2756
I4
sVNN-TL-HL_CC-TL-HL
p2757
I1
sVMD_CS
p2758
I42
sVPPSS_VBZ-TL
p2759
I1
sVFW-IN_FW-NNS
p2760
I5
sVIN-HL_NN-TL-HL
p2761
I5
sVVBG-NC_PPS+BEZ-NC
p2762
I2
sVPPSS-TL_BER-TL
p2763
I1
sVJJ-TL_BER
p2764
I5
sV._PN
p2765
I151
sVJJ-TL_BEZ
p2766
I8
sVVB-TL_MD-TL
p2767
I5
sVJJ-TL_BEG
p2768
I1
sVJJ-TL_BEM
p2769
I1
sVBEZ_DOZ
p2770
I1
sVDTI_JJR
p2771
I1
sVVB-TL_PPSS-TL
p2772
I1
sVRB_DTS
p2773
I33
sVVBN-HL_JJ-HL
p2774
I1
sVNNS-TL_VBN-TL
p2775
I478
sVPP$$_IN
p2776
I63
sV'_PN
p2777
I1
sVWQL_(
p2778
I4
sVWPO_BEDZ
p2779
I1
sV''_UH
p2780
I94
sVHVD*_WPS
p2781
I3
sVCC_start
p2782
I2815
sVNR_BER
p2783
I5
sVPPSS+HV_``
p2784
I63
sVNNS+MD_NN
p2785
I1
sV'_VBN
p2786
I9
sVVBD_DTI
p2787
I10
sVABL_CS
p2788
I29
sVBER_JJ
p2789
I16
sV'_VBD
p2790
I5
sV'_VBZ
p2791
I3
sVVBD_DTX
p2792
I5
sVABL_CC
p2793
I8
sVCD_EX+BEZ
p2794
I4
sVVBD_DTS
p2795
I10
sVFW-AT-TL_FW-IN
p2796
I4
sVCC_IN-NC
p2797
I1
sVQL_FW-NN
p2798
I1
sVFW-BEZ_FW-VBG
p2799
I1
sVVBG_BEDZ
p2800
I818
sV,_VB+JJ-NC
p2801
I1
sVPP$-NC_IN-NC
p2802
I2
sVAP_NPS$
p2803
I1
sVVBZ_PN
p2804
I146
sVCD-HL_:
p2805
I19
sVNNS_PN$
p2806
I14
sVAP-NC_``
p2807
I1
sVPN+HVD_CS
p2808
I1
sVCD-HL_)
p2809
I20
sVCD-HL_,
p2810
I1
sVNPS-TL_start
p2811
I9
sVPPL_RB
p2812
I9
sVPPS_DOZ*
p2813
I4
sVFW-RB_FW-CC
p2814
I3
sVQL_VB
p2815
I391
sVJJ_DT+BEZ
p2816
I15
sVPPL_RP
p2817
I1
sVNN-HL_NR-HL
p2818
I2
sVBEDZ_NR-TL
p2819
I8
sV--_IN
p2820
I26
sV(-HL_CD-HL
p2821
I10
sVFW-NP_JJ
p2822
I1
sVHV_NNS-TL
p2823
I12
sVVB_AP
p2824
I28
sVNN_MD*
p2825
I1
sVVB_AT
p2826
I16
sVBER*_DTS
p2827
I2
sVRB+BEZ-NC_IN
p2828
I1
sVNN-TL-HL_JJ-HL
p2829
I4
sVCC-HL_JJ-HL
p2830
I11
sVJJ-TL_NNS$
p2831
I2
sVABL_BEN
p2832
I2
sVAT-NC_VBZ-NC
p2833
I1
sVABL_BED
p2834
I1
sVABL_BEG
p2835
I1
sVVB_PPSS+HVD
p2836
I2
sVDOZ_WRB
p2837
I13
sVABL_BEZ
p2838
I9
sVNN_IN
p2839
I17225
sVCS_PPSS
p2840
I2
sVCC-HL_---HL
p2841
I3
sVFW-NNS_IN
p2842
I11
sVPPS+BEZ_WPS
p2843
I1
sVCC_NNS-TL
p2844
I119
sV._FW-NN
p2845
I30
sVEX_NP-TL
p2846
I1
sVVBN_WQL
p2847
I8
sVDTI-HL_VB-HL
p2848
I1
sVDTS_AP
p2849
I2
sV._FW-NP
p2850
I1
sVQL_NNS$-TL
p2851
I1
sV._DOZ
p2852
I10
sV(-HL_NP-TL
p2853
I2
sVJJ_PPSS
p2854
I35
sVCS_OD
p2855
I4
sV._DOD
p2856
I53
sVTO-HL_NNS-HL
p2857
I8
sVBER_,
p2858
I186
sVBER_)
p2859
I16
sV(_HVG
p2860
I1
sVDT_DO
p2861
I56
sVCS_NP-TL
p2862
I22
sV--_PPLS
p2863
I1
sVDT_DT
p2864
I1
sV._DO*
p2865
I3
sVNN-HL_NNS-TL-HL
p2866
I1
sVJJ-HL_HV-HL
p2867
I1
sVPP$_WPS+BEZ
p2868
I1
sVNNS-NC_VBD
p2869
I1
sVQL_PPSS
p2870
I24
sVCC-TL_CD-TL
p2871
I2
sVJJ-HL_PPS-HL
p2872
I2
sV--_BER
p2873
I6
sVCS_WDT
p2874
I8
sV--_BEZ
p2875
I9
sV--_BED
p2876
I3
sV--_BEG
p2877
I2
sV--_BEN
p2878
I3
sVHVZ_''
p2879
I12
sVMD-NC_NN
p2880
I1
sVIN_NP$-TL
p2881
I5
sVCS_VBD
p2882
I1081
sVCS_VBG
p2883
I329
sVFW-JJ_FW-*
p2884
I1
sVCS_VBN
p2885
I1178
sV,-HL_UH-HL
p2886
I1
sVDTI_BEDZ*
p2887
I4
sVCS_VBZ
p2888
I428
sVNN-TL_NN$-TL
p2889
I70
sVFW-BER_FW-NNS
p2890
I1
sVPPS_MD*
p2891
I4
sVJJ-TL-HL_AT-HL
p2892
I1
sV''_DT
p2893
I92
sV``_NPS
p2894
I1
sV,-HL_NP-TL
p2895
I1
sVNNS-HL_ABN-HL
p2896
I1
sV''_DO
p2897
I36
sV''_NN-TL-HL
p2898
I1
sVPP$-TL_IN-TL
p2899
I5
sVDTX_DOD
p2900
I2
sVVBG_DTI
p2901
I32
sVCC_CD
p2902
I518
sVNP_ABX
p2903
I33
sVCC_CC
p2904
I10
sVNN-TL_DOD
p2905
I1
sVBEG_NP$
p2906
I1
sVBE_NR+MD
p2907
I1
sVDTX_DO*
p2908
I1
sVNP_ABN
p2909
I19
sVNN-TL_DOZ
p2910
I2
sV``_NP$
p2911
I64
sVVBG_DTS
p2912
I35
sVCD-HL_start
p2913
I215
sVFW-VBG_FW-NN
p2914
I2
sVCS_ABX
p2915
I4
sVBEG_TO
p2916
I2
sVPN-HL_,-HL
p2917
I1
sVPPO-NC_VB-NC
p2918
I4
sVVBZ_IN-NC
p2919
I1
sVCS_ABN
p2920
I20
sVCS_ABL
p2921
I1
sVFW-PPO_``
p2922
I1
sVRB-TL_JJ-TL
p2923
I1
sVHVN_BE
p2924
I6
sVJJ_NN$
p2925
I199
sVFW-IN_start
p2926
I1
sVVBG_VB
p2927
I265
sVNP_UH
p2928
I7
sVVB-TL_--
p2929
I1
sVFW-NNS-TL_FW-CC-TL
p2930
I2
sVVBD-TL_FW-AT-TL
p2931
I1
sV._RB$
p2932
I2
sVCC-TL_RB-TL
p2933
I2
sVFW-NN_FW-PP$
p2934
I1
sVPP$_WDT
p2935
I68
sVAT_PPSS+BER
p2936
I22
sV:-HL_DOZ-HL
p2937
I15
sVAT_PPSS+BEM
p2938
I16
sV._RBR
p2939
I134
sVTO_QLP
p2940
I103
sVNNS$-TL_IN-TL
p2941
I1
sV._RBT
p2942
I9
sVJJ_NNS
p2943
I523
sVIN-NC_RB
p2944
I1
sVFW-IN_VBN
p2945
I2
sVVBG-TL_NNS-TL
p2946
I4
sVCD-TL_IN-TL
p2947
I16
sVPPSS+BEZ_CC
p2948
I1
sVVBN_BEDZ
p2949
I2188
sVQL_WDT
p2950
I18
sVIN-TL_FW-NN-TL
p2951
I4
sVWRB_PPSS
p2952
I1
sVFW-DT_FW-IN
p2953
I2
sVBER_PPL
p2954
I1
sVBER_PPO
p2955
I27
sV,_DO
p2956
I55
sVEX_AP
p2957
I3
sVUH_*
p2958
I1
sVPPSS_BE
p2959
I1
sVUH_)
p2960
I1
sV._PPLS
p2961
I49
sVUH_,
p2962
I85
sVJJ-TL_VBZ
p2963
I3
sVVB_NN-NC
p2964
I1
sVABX_WDT
p2965
I4
sVBEN_PPSS+HVD
p2966
I12
sVWDT_PN
p2967
I13
sVJJ-TL_VBN
p2968
I22
sVVBZ-TL_``
p2969
I1
sVJJ-TL_VBD
p2970
I24
sVJJ-TL_VBG
p2971
I27
sVHV_NNS
p2972
I526
sVPPS+HVZ_VB
p2973
I1
sV(_PP$$
p2974
I1
sVNN_AP$
p2975
I3
sVAT-TL_NP$
p2976
I24
sVVBN_BED*
p2977
I1
sVOD_JJT
p2978
I1
sVOD_JJR
p2979
I3
sVOD_JJS
p2980
I1
sV,_PN-TL
p2981
I1
sVPPSS-TL_NP$
p2982
I1
sVPPSS-NC_CC-NC
p2983
I2
sVPN_VB+PPO
p2984
I1
sVABN_BEDZ*
p2985
I2
sVNP_CD-TL
p2986
I1
sVEX_NR
p2987
I3
sVPPSS-NC_VB
p2988
I1
sV''_ABN-TL
p2989
I1
sVNNS-TL_JJ
p2990
I33
sVHVD_FW-NN
p2991
I2
sV*_NP+BEZ
p2992
I1
sVVBZ_JJ-TL
p2993
I5
sVJJT_VBG
p2994
I1
sVJJT_VBD
p2995
I1
sVJJR_VBZ
p2996
I16
sVJJT_VBN
p2997
I2
sV*_NN
p2998
I89
sV*_NP
p2999
I14
sVABN-NC_IN-NC
p3000
I1
sVOD_NN$
p3001
I12
sVJJT_VBZ
p3002
I4
sVOD-HL_VBZ-HL
p3003
I2
sVBEZ_NR-TL
p3004
I12
sVIN_NN-TL
p3005
I851
sVOD_IN
p3006
I62
sV''_PP$$
p3007
I13
sVVBG_PPSS
p3008
I66
sVRBR_MD
p3009
I11
sVNN-TL_RB-TL
p3010
I2
sVPPS+MD_JJ
p3011
I2
sVWDT-HL_)
p3012
I3
sV._FW-IN+NN
p3013
I3
sVNP-TL_NP$-TL
p3014
I3
sVBEN_HVD*
p3015
I14
sVWDT-HL_:
p3016
I1
sVNNS-TL_AT-TL
p3017
I52
sV:_FW-NN
p3018
I1
sVPP$_RBR
p3019
I4
sVVBG_:
p3020
I5
sVFW-NN-TL_AT
p3021
I52
sVCD_--
p3022
I66
sVVBG_*
p3023
I163
sVVBG_)
p3024
I15
sVVBG_(
p3025
I24
sVVBG_,
p3026
I2314
sVVBG_'
p3027
I5
sVJJ-TL-HL_start
p3028
I12
sV:-HL_NNS-HL
p3029
I12
sVIN_MD
p3030
I66
sVNNS-NC_CS
p3031
I1
sVOD-TL_NN-TL
p3032
I1
sVHVZ_AP
p3033
I6
sVDOD_WPS
p3034
I37
sVWPS-TL_WPS+BEZ-TL
p3035
I1
sVNNS-NC_CC
p3036
I2
sVWRB-HL_NN-HL
p3037
I2
sVVBG-HL_CD-HL
p3038
I3
sVPPS+MD_WRB
p3039
I4
sVJJ-TL_VBN-TL
p3040
I14
sVPPSS+BER_``
p3041
I70
sVCC_HV-NC
p3042
I1
sV*_FW-NN
p3043
I1
sVJJS_NN$-TL
p3044
I4
sVRB-NC_NP+BEZ-NC
p3045
I1
sVPPO_RBT
p3046
I1
sV---HL_RB-HL
p3047
I1
sVPPSS_NP-TL
p3048
I2
sVCS_RB
p3049
I1722
sVDO*_PPS
p3050
I9
sVAT-TL_:
p3051
I3
sVFW-IN_,
p3052
I7
sVWDT+BEZ_PPO
p3053
I3
sVFW-IN_(
p3054
I2
sVNPS_DTI
p3055
I4
sVNPS_DTS
p3056
I9
sVAT-TL_'
p3057
I2
sVCS_RP
p3058
I156
sVMD_AT
p3059
I1
sVAT-TL_(
p3060
I8
sVAT-TL_)
p3061
I1
sVMD_AP
p3062
I29
sVAT-TL_,
p3063
I31
sVVBN_NNS-TL
p3064
I10
sV._NR
p3065
I245
sV._NP
p3066
I2598
sVNN_start
p3067
I1377
sVABN_PPL
p3068
I1
sVNPS_--
p3069
I2
sV._NN
p3070
I19857
sVBER-HL_PPSS-HL
p3071
I8
sVPPO_BER
p3072
I3
sVVBN_BER
p3073
I1026
sV(_FW-VBN
p3074
I1
sVVBN_BEZ
p3075
I1685
sVNP-TL_--
p3076
I4
sVWP$_NNS
p3077
I47
sVVBN_BED
p3078
I1009
sVVBN_BEG
p3079
I357
sVRP_NP-TL
p3080
I2
sVVBN_BEM
p3081
I27
sV)-HL_NN-TL-HL
p3082
I4
sVVBN_BEN
p3083
I1131
sVAP_VBN
p3084
I133
sV'_NP
p3085
I8
sVAP-TL_PP$-TL
p3086
I1
sVAP_VBD
p3087
I189
sVDTS_WDT
p3088
I14
sVAP_VBG
p3089
I76
sVNP$-TL_NP-TL
p3090
I3
sVNP-TL_WRB+BEZ-TL
p3091
I3
sVABX_HVD
p3092
I2
sVCS_NNS-TL
p3093
I20
sVAP_VBZ
p3094
I95
sV'_NN
p3095
I46
sVVBZ_VB-NC
p3096
I2
sV---HL_JJ-HL
p3097
I3
sVHV*_NN
p3098
I1
sVBER_HV
p3099
I1
sVFW-AT-TL_FW-RB-TL
p3100
I1
sVDTS_JJ-TL
p3101
I1
sVNR-TL_NN
p3102
I1
sVVBG+TO_WDT+BER+PP
p3103
I1
sVDT+BEZ_--
p3104
I3
sVVB-HL_WDT-HL
p3105
I1
sVWDT+BEZ_RB
p3106
I2
sVNPS_RP
p3107
I3
sVRBR_PPL
p3108
I1
sVVBZ_VB
p3109
I7
sVBER*_EX
p3110
I3
sVWDT+BEZ_RP
p3111
I1
sVRB_NR
p3112
I28
sVNPS_RB
p3113
I3
sVIN-TL-HL_NN-TL-HL
p3114
I5
sVNN$-TL_CC
p3115
I2
sVDTI_QL
p3116
I1
sVQL_TO
p3117
I1
sVPN_CD
p3118
I1
sVHVD_DT
p3119
I27
sVFW-JJ_AT
p3120
I2
sVQL_DOZ
p3121
I2
sV)_CD-TL
p3122
I48
sVDOD*_PPSS
p3123
I115
sV,_UH-TL
p3124
I2
sVVB-NC_VB
p3125
I1
sVABX_``
p3126
I5
sVQL_DOD
p3127
I5
sVAP-HL_AT-HL
p3128
I5
sVDO_NNS-TL
p3129
I3
sVVBZ_NNS
p3130
I132
sVNNS_JJ-TL
p3131
I154
sVVBZ_NN$
p3132
I1
sVVB_CS
p3133
I26
sVDTX_DO
p3134
I2
sVNP$_FW-AT-TL
p3135
I1
sVBEDZ_FW-NN
p3136
I4
sVEX_CS-HL
p3137
I1
sVNN$-TL_PPS+BEZ
p3138
I1
sVVB_CD
p3139
I18
sVAT_UH
p3140
I2
sVNNS-NC_``
p3141
I1
sVCC-HL_CD-HL
p3142
I1
sVHVZ*_RB
p3143
I1
sVDOZ_WPS
p3144
I15
sVFW-CC_AT
p3145
I1
sVFW-IN_FW-CC
p3146
I1
sVDTI_NNS
p3147
I12
sVFW-VBZ_FW-PPO
p3148
I1
sVFW-VB_FW-NNS
p3149
I2
sVAT-TL_BE
p3150
I2
sVCD-HL_NP-HL
p3151
I47
sVABL_PPO
p3152
I3
sVJJ-TL-HL_NNS-TL-HL
p3153
I1
sVRB_DOD*
p3154
I16
sV``_BE
p3155
I32
sVWRB+BEZ_start
p3156
I3
sVJJ_NN$-TL
p3157
I46
sVPPS+BEZ_WRB
p3158
I12
sVNNS$-TL_JJ
p3159
I1
sVRN_IN-HL
p3160
I1
sV._RB-NC
p3161
I2
sVWRB_PPLS
p3162
I1
sVVBN-TL_``
p3163
I4
sV--_OD
p3164
I4
sV,_NP-HL
p3165
I1
sVFW-NN$-TL_FW-NN
p3166
I1
sVBEG_JJT
p3167
I1
sVHVZ_DTX
p3168
I1
sVRB_DTI
p3169
I22
sVMD_PPSS
p3170
I2102
sVHVZ_DTS
p3171
I1
sVNN_NP-TL
p3172
I124
sVNNS-TL_BED
p3173
I2
sVNPS_AT-TL
p3174
I4
sVVBN_NNS$
p3175
I1
sVJJ_BE
p3176
I946
sVNN-HL_AP-HL
p3177
I16
sVAT_JJR
p3178
I29
sV*_VBZ
p3179
I27
sVFW-NN-TL_FW-UH-TL
p3180
I1
sVNP-HL_CC-HL
p3181
I7
sVBEN_EX+HVD
p3182
I3
sV*_VBG
p3183
I16
sV*_VBD
p3184
I28
sVPPS+MD_start
p3185
I38
sV*_VBN
p3186
I39
sVDOZ_JJ-TL
p3187
I1
sVWPS+BEZ_RB
p3188
I1
sVVBN_PN+HVZ
p3189
I2
sVPPS-NC_IN
p3190
I3
sVNNS_NPS
p3191
I1
sVFW-NP-TL_FW-IN-TL
p3192
I2
sVDOD_WRB
p3193
I42
sVBER_UH
p3194
I1
sVPPS_PP$$
p3195
I1
sVOD-TL_JJ
p3196
I3
sVCD_BE
p3197
I46
sVJJ_AT-TL
p3198
I6
sVCC_AP
p3199
I99
sVFW-AT_``
p3200
I4
sVCC_AT
p3201
I3
sVNNS_NP$
p3202
I277
sVNP_HVD*
p3203
I1
sVDT_--
p3204
I57
sVBEG_RB
p3205
I36
sVDO_PPS
p3206
I6
sVNN-HL_CS-HL
p3207
I3
sVVBG_JJT
p3208
I7
sVVBG_JJS
p3209
I6
sVVBG_JJR
p3210
I18
sVDO_PPO
p3211
I22
sVVBG_PPLS
p3212
I2
sV''_PPSS-NC
p3213
I1
sVBER_ABN
p3214
I6
sVVBG_PP$
p3215
I238
sVAP-HL_VBD-HL
p3216
I1
sVBER_ABX
p3217
I8
sVVBG_TO
p3218
I4
sVJJ-HL_BER-HL
p3219
I2
sVNN_NP$
p3220
I1282
sVQL-NC_NN
p3221
I1
sVABN_NP
p3222
I5
sVFW-OD-TL_FW-IN+AT-T
p3223
I1
sVDT+BEZ_VB
p3224
I3
sVABX_MD
p3225
I5
sVCC_QLP
p3226
I8
sVABN_NN
p3227
I59
sVUH_BEZ
p3228
I1
sVFW-RB_NNS
p3229
I1
sVMD*_CD
p3230
I3
sVNNS$-TL_VBN-TL
p3231
I8
sVMD*_CC
p3232
I25
sVNNS_JJ
p3233
I12042
sVPPSS+HV_CS
p3234
I11
sVNP+BEZ_VB
p3235
I2
sVPPSS+HV_CC
p3236
I18
sVPPSS+BEM_VB
p3237
I6
sV._FW-JJ-TL
p3238
I4
sVVBG_PPL
p3239
I35
sVVBG_PPO
p3240
I91
sVNN_NPS
p3241
I2
sVDO_NNS
p3242
I85
sVFW-NN-TL_VBN
p3243
I2
sV''_DO+PPSS
p3244
I1
sVVBG_PPS
p3245
I23
sVCS_DOD
p3246
I2
sV(_VBD
p3247
I7
sVBEZ-HL_start
p3248
I2
sV(_VBG
p3249
I15
sVNP$_NP$
p3250
I1
sVFW-IN+AT_FW-NN
p3251
I3
sV(_VBN
p3252
I38
sVRP_QL
p3253
I41
sVRB-NC_JJ-NC
p3254
I2
sVRB-TL_VBN-TL
p3255
I1
sVCC_NNS$
p3256
I1
sVNP-TL_DOZ
p3257
I1
sV(_VBZ
p3258
I4
sVPPO_DO
p3259
I108
sVJJ-HL_``
p3260
I2
sV--_FW-PPL
p3261
I2
sVHVD_''
p3262
I5
sVNN$-TL_JJ-TL
p3263
I33
sVTO-NC_NN-NC
p3264
I1
sVFW-JJ_FW-NN-TL
p3265
I1
sVWPO_JJ
p3266
I1
sVNN-TL-HL_NP-HL
p3267
I4
sVPPS-NC_WPS+BEZ-NC
p3268
I1
sVNPS-HL_CC-HL
p3269
I2
sVWQL_*
p3270
I1
sVPP$_QLP
p3271
I1
sVWQL_,
p3272
I26
sVNP-TL_IN-HL
p3273
I2
sVHVD*_RB
p3274
I1
sVFW-NN-TL_JJ-TL
p3275
I1
sVNR_BEZ
p3276
I9
sVMD_PPLS
p3277
I5
sVNR_BED
p3278
I2
sVFW-AT_FW-CC
p3279
I3
sVNR_BEN
p3280
I3
sVWPO_NNS
p3281
I45
sVNP_FW-IN
p3282
I2
sVPP$$_VB
p3283
I8
sVBEZ-NC_DT
p3284
I1
sVNIL_NIL
p3285
I126
sVAT-HL_NP-HL
p3286
I3
sVNP$_WDT
p3287
I4
sVBEDZ_''
p3288
I62
sVTO-TL_NP$
p3289
I1
sV(_NR-TL
p3290
I1
sVNN-HL_JJ
p3291
I2
sVFW-VB_FW-UH
p3292
I1
sVBER_NP-TL
p3293
I9
sVNP-HL_JJR-HL
p3294
I1
sVNR_BEDZ
p3295
I1
sVPP$_NR
p3296
I6
sVPPS+MD_CS
p3297
I10
sVNN+BEZ_VBG
p3298
I2
sV:_IN
p3299
I16
sVVB-NC_TO-NC
p3300
I8
sVVB_DTS
p3301
I17
sV'_NN-HL
p3302
I5
sVRBR_NP-TL
p3303
I1
sVHVZ*_WPS
p3304
I1
sVVB_DTI
p3305
I14
sVAT-TL_ABN-TL
p3306
I2
sVVBG-HL_VBG-HL
p3307
I1
sVVB-NC_MD-NC
p3308
I1
sVNN-NC_IN-NC
p3309
I5
sVPPO-HL_VB-HL
p3310
I4
sVBEM_WRB
p3311
I1
sV--_PPS
p3312
I3
sV--_PPL
p3313
I11
sV--_PPO
p3314
I116
sV)_FW-JJ
p3315
I1
sVAT_NN-NC
p3316
I1
sVPPS_NP-TL
p3317
I6
sVVBN_FW-NN
p3318
I4
sVRB_NN
p3319
I2488
sVHVZ_CD
p3320
I13
sVVBN_IN
p3321
I615
sVAT_NN
p3322
I1042
sVIN_OD
p3323
I111
sVHVZ_CC
p3324
I65
sVPPS_DT
p3325
I23
sVBED_CD-TL
p3326
I4
sVAT_NP
p3327
I169
sVAT_NR
p3328
I35
sVHVZ_CS
p3329
I12
sVAT-TL_VBN
p3330
I9
sVAT-TL_VBD
p3331
I7
sVCC_FW-JJ
p3332
I2
sVAT-TL_VBG
p3333
I2
sVJJ-TL_CD-TL
p3334
I20
sVAP_EX
p3335
I1
sV--_PP$
p3336
I2
sVNNS-TL_RB-TL
p3337
I1
sVOD-TL_AT-TL
p3338
I6
sVIN-HL_AP-HL
p3339
I6
sVJJ-HL_DT-HL
p3340
I1
sVNP$_``
p3341
I10
sVCD_RBR
p3342
I3
sVJJR_DT+BEZ
p3343
I1
sVVBG_BEDZ*
p3344
I16
sVWPO_PPS
p3345
I1
sVCS_PN
p3346
I65
sV._DTI
p3347
I6
sVNR_''
p3348
I1
sVNP+BEZ_,
p3349
I3
sVPN$_``
p3350
I1
sV._DTX
p3351
I6
sVNP+BEZ_:
p3352
I1
sVJJ-TL_OD
p3353
I13
sV._DTS
p3354
I8
sVIN-TL_NP-TL
p3355
I36
sVAP-HL_start
p3356
I19
sVNN-TL_VBN-TL
p3357
I30
sVFW-VBN_FW-RB
p3358
I8
sVDT_HVZ
p3359
I11
sVDT_HVD
p3360
I16
sVDT_HVG
p3361
I2
sVDT_HVN
p3362
I2
sVNP-HL_(-HL
p3363
I82
sV(_NNS
p3364
I256
sVVB-HL_CC-HL
p3365
I1
sVNN_NN-HL
p3366
I2
sVVBG_PPSS+BEM
p3367
I61
sVFW-NN_BEN
p3368
I1
sVNN-TL_BEDZ
p3369
I15
sVVBD_PPSS+MD
p3370
I1
sVFW-NN_BER
p3371
I1
sVVBG_PPSS+BEZ
p3372
I1
sVPPSS+BEZ*_,
p3373
I1
sVFW-NN_BEZ
p3374
I1
sVVBG_PPSS+BER
p3375
I83
sVBER_NN
p3376
I499
sVBER_NR
p3377
I4
sVBER_NP
p3378
I59
sVBEG_--
p3379
I2
sV,_DO*
p3380
I1
sVNN-TL-HL_NP-TL-HL
p3381
I4
sVHVG_BER
p3382
I7
sVIN-NC_VBG-NC
p3383
I2
sVVBD-HL_NN-HL
p3384
I3
sVDT$_PN
p3385
I1
sVHVG_BEZ
p3386
I2
sV)_WDT
p3387
I1
sVIN-HL_CC-HL
p3388
I1
sV,_DOD
p3389
I33
sVHVG_BED
p3390
I5
sVHVG_BEN
p3391
I4
sVWRB_VB
p3392
I265
sVVBG_DOZ
p3393
I1
sVIN-HL_VBN-HL
p3394
I27
sV--_NN-TL
p3395
I66
sVAP-TL_AT-TL
p3396
I5
sVEX_``
p3397
I51
sVDT-TL_``
p3398
I2
sVNN-TL_AT
p3399
I2564
sVNN_QLP
p3400
I4
sVNN-TL_AP
p3401
I29
sVHVG_--
p3402
I1
sVQL_RP
p3403
I57
sVNR_NN$
p3404
I3
sVPPL_VB
p3405
I201
sVVBG_WQL
p3406
I2
sVQL_RB
p3407
I352
sVNP-HL_VB-HL
p3408
I3
sVNP$_CC-TL
p3409
I1
sVVB-TL_NPS
p3410
I1
sVDOZ*_WRB
p3411
I1
sVDT_BEDZ
p3412
I50
sVVB-TL_NP$
p3413
I2
sVVBG-HL_(-HL
p3414
I1
sVNR$_DT
p3415
I1
sVBEN_WPS+HVZ
p3416
I2
sV:_ABN
p3417
I2
sVNP-TL_DTI
p3418
I1
sVDOD*_NN
p3419
I19
sVNN-TL_VB-TL
p3420
I10
sVVBD_start
p3421
I52
sVJJT-HL_BEZ-HL
p3422
I1
sVNN+HVZ-TL_JJ-TL
p3423
I1
sVNR_NNS
p3424
I76
sVFW-CC_CD
p3425
I1
sVWRB+DOD_VB
p3426
I1
sVNN_MD
p3427
I22
sV,_NPS$
p3428
I1
sVNN-TL-HL_NN-TL-HL
p3429
I24
sVNR-TL-HL_AT-HL
p3430
I5
sVFW-NN-TL_FW-OD-TL
p3431
I1
sVIN_FW-VBN
p3432
I3
sVNR_QL
p3433
I5
sVIN-TL_QL-TL
p3434
I1
sVVBD_NN$
p3435
I2
sVHVD_JJ-TL
p3436
I4
sVNNS-HL_NNS-HL
p3437
I3
sVAT-TL_FW-NN-TL
p3438
I1
sVVBN-TL_,
p3439
I33
sVFW-NNS_AP
p3440
I3
sVAT_WRB+BEZ
p3441
I2
sVNIL_,
p3442
I6
sVAP_BEM*
p3443
I1
sVNIL_(
p3444
I1
sVVBN_ABN
p3445
I51
sVPPLS_MD*
p3446
I1
sV--_MD
p3447
I12
sVNNS_AP$
p3448
I5
sVVBD_NNS
p3449
I1421
sVVBN_ABX
p3450
I17
sVTO-NC_JJ
p3451
I1
sVNIL_AT
p3452
I1
sVIN-TL_''
p3453
I3
sVBED_NP
p3454
I107
sVHV_PPLS
p3455
I3
sVBED_NR
p3456
I1
sVPPL_BEZ
p3457
I16
sVPPSS_,
p3458
I1763
sVBED_NN
p3459
I307
sVPPSS+HVD_PN
p3460
I2
sVNP-TL_,
p3461
I117
sVNP-TL_)
p3462
I1
sVNP-TL_(
p3463
I5
sVNP-TL_*
p3464
I1
sVWDT_BEZ*
p3465
I3
sVNP-TL_'
p3466
I4
sVJJ_DO
p3467
I15
sV''_WDT
p3468
I14
sVJJ_DT
p3469
I753
sVNP-TL_:
p3470
I6
sV,-NC_HV-NC
p3471
I1
sVFW-JJ-TL_NP$
p3472
I5
sVNN$_DT
p3473
I40
sVWQL_TO
p3474
I1
sVJJ_PPS
p3475
I28
sVCD_DTS
p3476
I74
sVCD_DTX
p3477
I1
sVWRB-HL_start
p3478
I28
sVIN_VB-NC
p3479
I1
sVFW-NP_FW-PP$
p3480
I1
sV``_PPSS
p3481
I12
sVBEZ*_--
p3482
I1
sVIN_FW-WDT
p3483
I1
sVJJ_PPL
p3484
I17
sVCD_DTI
p3485
I65
sVOD_``
p3486
I7
sVVB_DOD
p3487
I94
sVVB_DOZ
p3488
I34
sVJJ_PP$
p3489
I3065
sVFW-CC-TL_NP
p3490
I1
sVNP-TL_WP$
p3491
I1
sVNNS_NR$
p3492
I15
sVBEG_PN
p3493
I3
sVNP-NC_CC-NC
p3494
I1
sV''_UH-TL
p3495
I3
sV'_VBG
p3496
I7
sV''_VBN
p3497
I203
sVVB-TL_NNS-TL
p3498
I6
sVHVG_JJ
p3499
I1
sV''_VBD
p3500
I62
sV''_VBG
p3501
I100
sV''_VBZ
p3502
I36
sVVBN-TL_NNS-TL
p3503
I5
sVVBG_RB
p3504
I920
sVRB-HL_NNS-HL
p3505
I1
sVVBN_QLP
p3506
I2
sVNNS-TL_ABN
p3507
I8
sVWQL_RBR
p3508
I1
sVABX_CS
p3509
I27
sVNNS-TL_ABX
p3510
I1
sVVBG_RP
p3511
I43
sV*_PPSS+MD
p3512
I2
sVNN-TL_JJ-TL
p3513
I1757
sVWPO-TL_``
p3514
I2
sVABX_CC
p3515
I18
sVABL_``
p3516
I4
sVCD_DO
p3517
I3
sVVB_``
p3518
I411
sVCD_DT
p3519
I89
sVNNS_HV
p3520
I58
sVMD*_AP
p3521
I3
sVIN-NC_RP-NC
p3522
I1
sV,_FW-BEZ
p3523
I1
sVNN_NR$
p3524
I24
sVVBN_NN+BEZ-TL
p3525
I1
sVDOZ_PPS
p3526
I105
sVHV_NR-TL
p3527
I2
sVDTI_--
p3528
I18
sVMD-TL_:
p3529
I1
sVNNS_WRB
p3530
I115
sVNNS-HL_''
p3531
I1
sVPP$-NC_IN
p3532
I4
sVCC-TL_NPS-TL
p3533
I1
sVPPO_BE
p3534
I3
sVABN_PPSS+BER
p3535
I7
sVNPS-NC_AT-NC
p3536
I1
sVNP-HL_NP-HL
p3537
I65
sVDOD_``
p3538
I23
sV``_NP-TL
p3539
I4
sVCD_NNS
p3540
I228
sVIN_WPS
p3541
I34
sVVBN-NC_NP+HVZ-NC
p3542
I1
sVVBN_RB
p3543
I3064
sVFW-WDT_FW-IN
p3544
I2
sVTO_VBN
p3545
I1539
sVTO_VBD
p3546
I1219
sVDOD*_RB
p3547
I23
sVCS_RBT
p3548
I1
sVJJ_NP-TL
p3549
I9
sVTO_VBZ
p3550
I452
sVCS_RBR
p3551
I143
sV.-HL_NNS-HL
p3552
I78
sVPPS+HVZ_RB
p3553
I2
sVVBG_DOD
p3554
I2
sVRBR_IN
p3555
I10
sVPPS+MD_NN
p3556
I11
sVFW-NNS_FW-JJ
p3557
I4
sVRB_VBN-NC
p3558
I1
sVAP-TL_VBN
p3559
I1
sVAP_BEZ
p3560
I81
sVHVN_PPSS+HVD
p3561
I8
sVABN_PPSS+MD
p3562
I2
sVAP_BER
p3563
I87
sVAP_BEN
p3564
I14
sVAP_BED
p3565
I45
sVAP_BEG
p3566
I2
sVAT-TL_VBZ-TL
p3567
I1
sV*_RP
p3568
I1
sVBEZ_NPS
p3569
I6
sV*_RB
p3570
I87
sV,_HV
p3571
I26
sV,_DOZ
p3572
I12
sVPPS-HL_MD-HL
p3573
I1
sVJJT_PPS+BEZ
p3574
I1
sVJJR_IN
p3575
I221
sV,-NC_VBN-NC
p3576
I1
sVCD_VB
p3577
I327
sVJJ-TL_WDT
p3578
I6
sVVBG_NN-TL
p3579
I40
sVNP_WPS
p3580
I17
sVBER_WDT
p3581
I155
sVNNS-TL_BER-TL
p3582
I1
sVNP_WPO
p3583
I30
sVNN$_NP$
p3584
I1
sVVB_)
p3585
I26
sVVB-TL_,
p3586
I6
sVHV*_NNS
p3587
I1
sVBE_ABN
p3588
I5
sVFW-RB_BE
p3589
I1
sVBED_FW-NNS-TL
p3590
I1
sVWPS+BEZ_start
p3591
I2
sVWRB-NC_'
p3592
I3
sVPN_WPS
p3593
I1
sVBE_ABX
p3594
I3
sVPPS_JJ
p3595
I105
sVNN-HL_HV-HL
p3596
I1
sV'_DTI
p3597
I1
sVIN_QL
p3598
I163
sVAT-NC_VBD-NC
p3599
I2
sVIN-NC_VBZ
p3600
I1
sV)_DOD
p3601
I2
sVNP_WP$
p3602
I3
sV)_DOZ
p3603
I1
sVVB-HL_WPS-HL
p3604
I2
sVNN$_NNS-TL
p3605
I3
sVPPSS-NC_WRB
p3606
I1
sVCD-TL_RB-TL
p3607
I2
sVNN-TL_OD-TL
p3608
I134
sVFW-JJ-TL_AT
p3609
I8
sVCS_VB-NC
p3610
I1
sVNNS-TL_JJ-TL
p3611
I342
sVABN_--
p3612
I30
sVMD_EX
p3613
I196
sVNNS-HL_NNS$-HL
p3614
I3
sVRP_WDT+BEZ
p3615
I1
sVFW-JJ-TL_PP$
p3616
I1
sVAT-NC_IN
p3617
I1
sVJJ-TL_IN
p3618
I687
sVRP_BEZ
p3619
I26
sVVBG-TL_IN
p3620
I4
sVRP_BER
p3621
I5
sVPPSS+BER_PPO
p3622
I1
sVTO-HL_VBN-HL
p3623
I3
sV._JJ
p3624
I2583
sVRP_BEM
p3625
I1
sVRP_BEN
p3626
I6
sVRP_BED
p3627
I20
sVRP_BEG
p3628
I2
sVPPSS_BEDZ*
p3629
I1
sVNP-HL_VBZ-HL
p3630
I5
sVFW-AT-TL_FW-IN-TL
p3631
I9
sVNN-TL_VBD
p3632
I56
sVIN-NC_NN
p3633
I1
sVAT_WDT
p3634
I469
sVNN-TL_VBG
p3635
I34
sVVBZ_NNS-NC
p3636
I1
sVNPS_VB
p3637
I8
sVPPS-HL_WDT-HL
p3638
I15
sVNR-TL_JJ-TL
p3639
I39
sVNNS_PPO
p3640
I64
sVVB-TL_TO-TL
p3641
I10
sVPP$_BEG
p3642
I1
sVFW-BEZ_FW-*
p3643
I1
sVWPS_DT
p3644
I1
sVMD+HV_RB
p3645
I1
sVWPS_DO
p3646
I2
sVFW-RB_FW-NN
p3647
I3
sV)_BEZ*
p3648
I1
sV,_DOD*
p3649
I3
sVWRB_TO
p3650
I8
sVNN-TL_CD
p3651
I39
sVNP-TL_JJ
p3652
I66
sVNN-TL_CC
p3653
I216
sVHVZ_WDT
p3654
I83
sVIN-NC_RB-NC
p3655
I1
sVJJT_NP$-TL
p3656
I2
sVAT_FW-PPO+IN
p3657
I1
sVNNS_PP$
p3658
I3261
sVNN-TL_CS
p3659
I125
sVNN+BEZ_start
p3660
I2
sVPPSS_DOD*
p3661
I14
sVNN_OD
p3662
I1139
sVFW-PPSS_JJ
p3663
I1
sVAT_RB-NC
p3664
I3
sVVBZ-HL_NP-TL
p3665
I1
sVDOZ_NN-TL
p3666
I6
sVPPSS+HVD_,
p3667
I6
sVWPS+MD_NN
p3668
I2
sVDOZ*_WPS
p3669
I4
sVCD-TL_start
p3670
I21
sVQL_PN
p3671
I39
sVNN_PP$$
p3672
I1
sVNNS$-TL_NNS$-TL
p3673
I1
sVMD+PPSS_,
p3674
I1
sVRP-NC_VBD-NC
p3675
I1
sVABL_MD
p3676
I2
sVAT_QL
p3677
I24
sVNNS$_IN
p3678
I36
sVNR_NNS$
p3679
I1
sVWPS+HVZ_NN
p3680
I2
sVBE_--
p3681
I2
sVNP-TL_BEZ
p3682
I3
sVDOZ*_RB
p3683
I2
sVNR_NPS
p3684
I4
sVNP-TL_BER
p3685
I1
sVPPO_VBN
p3686
I578
sVIN-HL_BEZ-HL
p3687
I1
sVJJS_JJ
p3688
I4
sVPPO_VBZ
p3689
I368
sVNP-HL_JJ-HL
p3690
I4
sVAT-TL_NP
p3691
I5
sVRB_PPSS+HVD
p3692
I6
sVAT-TL_NN
p3693
I8
sVCC_NNS-NC
p3694
I2
sVPPSS_WRB+DOD*
p3695
I1
sVNR-TL_NP-TL
p3696
I2
sVVBG_start
p3697
I593
sVFW-NNS_CD
p3698
I1
sVFW-NNS_CC
p3699
I1
sVFW-NR-TL_FW-IN-TL
p3700
I2
sVNN-TL_WPS-TL
p3701
I1
sV(-HL_start
p3702
I98
sVFW-VB-TL_FW-*-TL
p3703
I1
sVBEZ_BE
p3704
I3
sVCC_NP-NC
p3705
I1
sVDT_BE
p3706
I13
sV._PPSS
p3707
I26
sVWDT_IN
p3708
I1427
sVFW-JJ-TL_FW-NP-TL
p3709
I1
sVNPS$_JJ
p3710
I1
sVMD_QLP
p3711
I1
sVPP$_BEZ*
p3712
I3
sVAP_RBR
p3713
I3
sVCS_start
p3714
I2189
sVPPSS+HVD_RB
p3715
I3
sVPPSS+HVD_RN
p3716
I1
sVNIL_CC
p3717
I1
sVAT_BER*
p3718
I1
sVNNS_FW-NN
p3719
I3
sVNR-TL_AT-TL
p3720
I2
sVBEG_PP$
p3721
I15
sVNP_JJ-TL
p3722
I61
sVBEZ-HL_NN-HL
p3723
I24
sVNP$_DT
p3724
I2
sVNN-TL_``
p3725
I204
sVVBG_JJ-TL
p3726
I4
sV,_JJ+JJ-NC
p3727
I2
sVBEZ*_DT
p3728
I12
sVWQL_VB
p3729
I25
sVBER*_,
p3730
I11
sVDTI_WPO
p3731
I2
sVVB_NPS-TL
p3732
I1
sV:_RB
p3733
I70
sV._FW-NNS-TL
p3734
I1
sVABN_RP
p3735
I23
sVRP_PN
p3736
I10
sV:_RP
p3737
I10
sV'_BEDZ
p3738
I3
sVJJ_AT-HL
p3739
I1
sVBEG_NP
p3740
I4
sVWPS_NN-TL
p3741
I26
sV''_IN-NC
p3742
I1
sV.-HL_VBZ-HL
p3743
I2
sV,_PPSS-TL
p3744
I2
sVBEG_PPO
p3745
I2
sVQL_'
p3746
I1
sV,_NP$
p3747
I30
sVQL_*
p3748
I163
sVQL_(
p3749
I14
sVQL_)
p3750
I3
sVQL_,
p3751
I521
sVRP_HVZ
p3752
I1
sVQL_:
p3753
I7
sVPN-NC_JJ
p3754
I1
sVVBG_PN
p3755
I24
sVCD-HL_NNS
p3756
I2
sVWDT+HVZ_IN
p3757
I1
sVFW-CC_``
p3758
I4
sVABN_BE
p3759
I4
sVEX+BEZ_WRB
p3760
I4
sVNPS_VBN
p3761
I13
sVNNS_VB
p3762
I853
sVRB-NC_VBN-NC
p3763
I1
sVNPS_VBG
p3764
I12
sVNPS_VBD
p3765
I6
sVFW-NNS-NC_``
p3766
I1
sVNN-TL_PP$
p3767
I122
sVABN_BEZ*
p3768
I2
sVNN-TL-HL_VBN-HL
p3769
I1
sVBE_MD+TO
p3770
I1
sVNN_BEG
p3771
I7
sVDT_BEDZ*
p3772
I6
sV,_NPS
p3773
I228
sVNP-TL_OD-TL
p3774
I16
sVMD*_PPSS
p3775
I336
sVQL_PPS+BEZ
p3776
I47
sVNNS_WPO
p3777
I7
sVPPL_BEDZ
p3778
I2
sVNP$-TL_JJ-TL
p3779
I18
sVNN-NC_WDT-NC
p3780
I1
sVNP$_IN
p3781
I874
sV''_DT-NC
p3782
I1
sVNNS_WPS
p3783
I3
sVQL_PP$
p3784
I82
sVNIL_``
p3785
I3
sV''_BEDZ
p3786
I8
sVJJR-TL_IN
p3787
I4
sVFW-OD-NC_start
p3788
I1
sV--_JJT
p3789
I1
sVQL_PPS
p3790
I18
sVJJ_BEN
p3791
I204
sVPPSS_DT
p3792
I22
sVJJ_BEM
p3793
I37
sVJJ-TL_IN-TL
p3794
I131
sVJJ_BED
p3795
I370
sVDOZ_``
p3796
I9
sVNR-TL_''
p3797
I1
sVJJ_BER
p3798
I646
sVQL_PPL
p3799
I16
sVPPSS_DO
p3800
I129
sVQL_PPO
p3801
I140
sVIN_WRB
p3802
I55
sV*_RBR
p3803
I1
sVJJ-TL_JJ-TL
p3804
I133
sVNNS_WP$
p3805
I65
sVPP$$_RB
p3806
I8
sV''_FW-VB-NC
p3807
I2
sVRB_CD-NC
p3808
I1
sVNP_PPL
p3809
I3
sVNP_PPO
p3810
I27
sVPP$_HVN
p3811
I9
sVPP$_HVD
p3812
I52
sVPP$_HVG
p3813
I13
sVDO*_PPSS
p3814
I260
sVPP$_HVZ
p3815
I28
sVNN-HL_NN
p3816
I2
sVNPS-TL_NN-TL
p3817
I8
sVBEG_DTS
p3818
I1
sVNP_PPS
p3819
I4
sVMD_PP$
p3820
I2
sV,_FW-JJ-TL
p3821
I8
sVCS_JJ-NC
p3822
I1
sVBED*_PPSS
p3823
I10
sVNN$-HL_start
p3824
I18
sVBE_NNS-TL
p3825
I3
sVNN_CD$
p3826
I1
sV(-HL_,
p3827
I4
sVVBG-TL_start
p3828
I7
sVCC_``
p3829
I246
sV(-HL_:
p3830
I12
sV*_PN
p3831
I7
sVVBN_NN+HVZ
p3832
I3
sV'_NN-TL
p3833
I11
sV,_JJ
p3834
I3468
sVPP$_NR-TL
p3835
I2
sVPP$_HV*
p3836
I1
sVCC_MD*
p3837
I1
sVNP_PP$
p3838
I101
sVNN-NC_DT-NC
p3839
I4
sVIN-HL_CD-HL
p3840
I2
sVNN_BEDZ
p3841
I156
sVNP$-TL_,
p3842
I2
sVRN_IN
p3843
I4
sVIN+PPO_NN
p3844
I1
sVVBD_IN
p3845
I3
sVNP_WRB
p3846
I237
sVIN_PN
p3847
I483
sV''_NP$-TL
p3848
I1
sVPN_WRB
p3849
I44
sV)_FW-NN
p3850
I5
sVAT-TL_WRB-TL
p3851
I6
sV``_JJR
p3852
I5
sVVBN_DT+BEZ
p3853
I3
sVPP$$_BEDZ
p3854
I3
sVMD*_``
p3855
I11
sV)_''
p3856
I42
sVAT_JJ
p3857
I209
sVABL_VB
p3858
I34
sVJJR-NC_BER-NC
p3859
I2
sVVBN_EX
p3860
I2
sVMD-HL_PPS-HL
p3861
I1
sVNNS-HL_---HL
p3862
I2
sVMD*_PPLS
p3863
I2
sV._BEDZ*
p3864
I2
sVAP_IN
p3865
I1522
sVWP$_NNS-TL
p3866
I1
sVCD-HL_NNS-TL-HL
p3867
I1
sVPPSS_WRB+DO
p3868
I1
sVVB_FW-NN
p3869
I2
sVJJ-NC_IN
p3870
I4
sVHVD_PPL
p3871
I13
sVFW-NNS_AT
p3872
I11
sVCC_NPS-TL
p3873
I4
sV''_BEDZ*
p3874
I1
sVNN-TL_CS-TL
p3875
I1
sVJJ-HL_AT
p3876
I1
sVMD*_NN-TL
p3877
I7
sVNP-TL_''
p3878
I2
sVFW-JJ_FW-BER
p3879
I1
sVWRB_RBT
p3880
I1
sVPPS-NC_,
p3881
I2
sVNN+NN-NC_CS
p3882
I1
sVWRB_RBR
p3883
I6
sVVBN_PPLS
p3884
I10
sV._HV
p3885
I19
sVVB-TL_CC
p3886
I1
sVJJR_HVZ
p3887
I3
sVIN_FW-JJ-TL
p3888
I6
sVNN_NN-TL
p3889
I521
sVJJR_HVD
p3890
I5
sVIN_PPS-NC
p3891
I1
sVPPO_VBD
p3892
I1994
sVCC_FW-JJ-TL
p3893
I1
sVPPS+HVD_start
p3894
I18
sV''_QL
p3895
I3
sVAT-HL_VBZ-HL
p3896
I3
sVCC-TL_JJR
p3897
I1
sVBEDZ_CD-TL
p3898
I6
sVCC_NRS
p3899
I1
sVHVZ_FW-NN
p3900
I3
sVQL_DOD*
p3901
I1
sVWRB_RB
p3902
I234
sVJJS_ABN
p3903
I1
sVWRB_RP
p3904
I37
sV*_(
p3905
I10
sV*_)
p3906
I2
sV*_,
p3907
I260
sVNN_AT
p3908
I48372
sV*_:
p3909
I2
sVDT_NR-TL
p3910
I2
sVNN_AP
p3911
I2671
sVNNS-TL_''
p3912
I1
sVVBD_:
p3913
I1
sV''_NNS-TL-NC
p3914
I2
sVRP_ABX
p3915
I2
sVVBZ_NR-TL
p3916
I8
sVRP_ABN
p3917
I14
sVAP_JJT
p3918
I4
sVVB_JJ
p3919
I32
sVBEN_PPO
p3920
I1
sVTO_PPSS+BEM
p3921
I2
sV--_FW-NNS-TL
p3922
I1
sVCD_ABN
p3923
I45
sVVBD_FW-NR-TL
p3924
I1
sVJJS_HV
p3925
I1
sVNN_PPSS+BEM
p3926
I1
sVABX_NNS
p3927
I7
sVRB-NC_``
p3928
I4
sVNN_PPSS+BER
p3929
I1
sVCD_ABX
p3930
I1
sVBEZ-NC_NP-NC
p3931
I1
sVNR$_HV
p3932
I1
sVVBD_)
p3933
I43
sV._NNS
p3934
I7667
sVFW-JJ-TL_``
p3935
I1
sVQL_WQL
p3936
I5
sVCC_PN
p3937
I28
sVNN+BEZ_CC
p3938
I2
sVNR_start
p3939
I64
sVCD-TL_VBG-TL
p3940
I1
sV*-HL_'
p3941
I1
sVIN-TL_VB-TL
p3942
I10
sVFW-AT-TL_``
p3943
I12
sV(_JJ-TL
p3944
I11
sVNP_MD*
p3945
I1
sVHV_MD
p3946
I974
sVCD-HL_,-HL
p3947
I9
sV--_QL
p3948
I1
sVVBN-TL_CS
p3949
I5
sVVBN-TL_CD
p3950
I1
sVVBN-TL_CC
p3951
I3
sV._NN$
p3952
I4
sVJJ-TL_QL-TL
p3953
I5
sV._BER
p3954
I26
sVDO_NN-TL
p3955
I3
sVCC-HL_NNS-HL
p3956
I25
sVVB-TL_``
p3957
I18
sV._BEZ
p3958
I32
sVPPS+HVD_WRB
p3959
I3
sVRB_JJ-NC
p3960
I1
sV._BEG
p3961
I10
sVMD_RB-NC
p3962
I1
sV._BED
p3963
I12
sV._BEN
p3964
I18
sV._BEM
p3965
I7
sV,_PPSS
p3966
I84
sVUH_FW-CS
p3967
I1
sVPPSS+MD_JJ
p3968
I5
sVPPS+BEZ_NN
p3969
I4
sVVBN_RBT
p3970
I29
sV:_PN
p3971
I1
sV,_QL
p3972
I10
sVHV-NC_PPSS-NC
p3973
I6
sVVBG-HL_)-HL
p3974
I1
sVFW-PPO_FW-IN
p3975
I1
sVDTI_WRB
p3976
I15
sVPPS_--
p3977
I122
sV''_JJT
p3978
I12
sV''_JJS
p3979
I3
sV''_JJR
p3980
I15
sVNP-TL_CD-HL
p3981
I1
sV,_RP-NC
p3982
I2
sVWDT+BEZ_``
p3983
I22
sVPP$_PN
p3984
I5
sVNN-HL_JJ-HL
p3985
I206
sVHVZ_NPS
p3986
I1
sVTO-NC_,
p3987
I1
sVBEZ_TO-NC
p3988
I2
sVIN-HL_NN-HL
p3989
I231
sVVBN_PPO-TL
p3990
I1
sVHVG_NN
p3991
I15
sVWPS-TL_``
p3992
I1
sVAT-HL_CD-HL
p3993
I1
sV--_FW-IN+NP-TL
p3994
I1
sVVBG_NR
p3995
I5
sVVBG_NP
p3996
I139
sV.-HL_''
p3997
I2
sVJJR-HL_CC-HL
p3998
I1
sVABL_WRB
p3999
I2
sVNNS$-TL_ABN-TL
p4000
I1
sVVBG_NN
p4001
I1087
sVNN-HL_NP$-HL
p4002
I3
sVPPS+BEZ-NC_CS-NC
p4003
I1
sV.-HL_JJR-HL
p4004
I1
sVBEZ_CD-TL
p4005
I7
sVABN_)
p4006
I3
sVABN_(
p4007
I4
sVVB_NP-TL
p4008
I7
sVABN_*
p4009
I30
sVABN_'
p4010
I1
sVMD*_EX
p4011
I5
sVOD-TL_DT
p4012
I1
sVDTS_start
p4013
I416
sVNN_FW-NN$-TL
p4014
I1
sVABN_:
p4015
I3
sVFW-NN_(
p4016
I3
sVWPS_FW-NN
p4017
I1
sVFW-NN_,
p4018
I12
sVJJ_VBN-TL
p4019
I1
sVIN_FW-NP-TL
p4020
I1
sVAP_RB
p4021
I108
sVNNS$-TL_AT-TL
p4022
I1
sVFW-IN_FW-AT+NN-TL
p4023
I1
sV``_NIL
p4024
I1
sVMD*_VBN
p4025
I2
sVAP_RP
p4026
I18
sVMD*_VBD
p4027
I1
sVMD*_VBG
p4028
I1
sV,_NRS
p4029
I4
sVEX_WDT
p4030
I22
sVWDT-HL_VB-HL
p4031
I1
sVFW-AT-TL_CS
p4032
I1
sVWDT_NN-TL
p4033
I24
sVBER_NRS
p4034
I1
sVAP_NNS-TL
p4035
I3
sVCC_WPO
p4036
I1
sVCC_WPS
p4037
I2
sVFW-AT-TL_CC
p4038
I1
sVRB_PPSS+MD
p4039
I46
sVPPO_NN
p4040
I15
sVPPSS+HVD_NNS
p4041
I4
sVPP$-HL_``
p4042
I1
sVDTS_NNS
p4043
I10
sVNNS_DT$
p4044
I5
sVNN-HL_*-HL
p4045
I3
sVWPS+BEZ_PN
p4046
I2
sV''_FW-NN$-TL
p4047
I1
sVNNS_DTS
p4048
I1184
sVNNS-TL_NN-TL
p4049
I254
sVRB_BE
p4050
I292
sVABN_DO
p4051
I7
sVJJ_PPO
p4052
I300
sVABN_DT
p4053
I6
sVNNS_DTI
p4054
I375
sV''_BEZ*
p4055
I4
sVIN_FW-NN
p4056
I22
sVJJ-NC_PPS-NC
p4057
I1
sVVBD_VBN
p4058
I14
sVJJ_ABN
p4059
I158
sVVBD_VBG
p4060
I26
sVVBD_VBD
p4061
I10
sVMD-TL_PPSS-TL
p4062
I4
sVQLP_BEZ*
p4063
I1
sV*_HVD
p4064
I120
sVVB+IN_UH
p4065
I1
sVPPSS+HVD_WPS
p4066
I1
sV*_HVN
p4067
I1
sVPPS+MD_RP
p4068
I3
sVWQL_VBN
p4069
I4
sVNN-HL_NN-TL-HL
p4070
I7
sVOD_AT
p4071
I1251
sVWQL_VBG
p4072
I3
sV*_HVZ
p4073
I78
sVPPS+MD_RB
p4074
I6
sVNPS_PP$
p4075
I8
sVVBZ_WDT
p4076
I382
sVRB_NP$
p4077
I8
sVFW-AT_CC
p4078
I1
sVIN_FW-NN$
p4079
I1
sVNNS-TL_BE
p4080
I1
sVPPSS+HVD_QLP
p4081
I1
sV''_DOZ
p4082
I2
sVVB-HL_*-HL
p4083
I2
sVIN-TL_PN-TL
p4084
I1
sVJJ_''
p4085
I45
sVOD_DTI
p4086
I1
sVNNS-HL_RB-HL
p4087
I1
sVOD_DTS
p4088
I7
sVIN_FW-NNS
p4089
I6
sV:-HL_NN-HL
p4090
I62
sVRB_NPS
p4091
I30
sVNN-HL_)-HL
p4092
I5
sVDT-TL_NP$
p4093
I1
sVTO_DOD
p4094
I3
sVPPO-NC_CC
p4095
I1
sVFW-PPSS_``
p4096
I2
sV,-HL_NR-HL
p4097
I2
sVNN_DOZ
p4098
I5
sVTO_DOZ
p4099
I1
sVIN_HVN
p4100
I16
sVTO-TL_NN-TL
p4101
I3
sVIN_HVD
p4102
I52
sVIN_HVG
p4103
I2
sVIN_HVZ
p4104
I24
sVRB-TL_NNS-TL
p4105
I2
sVQLP_,
p4106
I1
sVBEZ_VBN-TL
p4107
I1
sVWDT+HVZ_start
p4108
I1
sVNNS-TL_FW-CC-TL
p4109
I1
sVDOZ_NNS
p4110
I5
sVPPS_NR
p4111
I21
sVAT_HV
p4112
I523
sVPPS_NP
p4113
I49
sVVB-NC_*-NC
p4114
I1
sVIN-HL_DTI-HL
p4115
I1
sVNIL_start
p4116
I3
sVNN$-TL_start
p4117
I3
sVVB_TO
p4118
I12291
sVTO_RBR
p4119
I27
sVTO_RBT
p4120
I5
sVVBN_CD
p4121
I98
sVCD-HL_NN-TL-HL
p4122
I12
sVPPS_NN
p4123
I900
sVNN_PN$
p4124
I49
sVMD-HL_WDT-HL
p4125
I3
sVJJ-TL_NNS$-TL
p4126
I1
sV._NPS-TL
p4127
I11
sVAP_OD
p4128
I10
sVFW-NN-TL_AT-TL
p4129
I1
sVNP_PPLS
p4130
I1
sVDOZ_CS
p4131
I3
sVNRS_VBN
p4132
I2
sVDOZ_CD
p4133
I1
sVNN-TL_JJS
p4134
I1
sVNN-TL_JJR
p4135
I2
sVNN-TL_JJT
p4136
I4
sVDOZ_CC
p4137
I29
sVFW-JJT_AT
p4138
I1
sVVBD_BEDZ
p4139
I3
sVDO_NR-TL
p4140
I1
sVVB_WDT
p4141
I179
sVIN-TL_NR
p4142
I1
sVCS_''
p4143
I52
sVIN-TL_NP
p4144
I9
sVDTS_VBD
p4145
I31
sVDTS_VBG
p4146
I49
sVDT+MD_CC
p4147
I1
sVDTS_VBN
p4148
I22
sVNR_--
p4149
I5
sVNP_NPS$
p4150
I2
sVQL_PP$$
p4151
I1
sVVBG_''
p4152
I14
sVDTS_VBZ
p4153
I19
sVBER_QLP
p4154
I1
sVNN-NC_CC
p4155
I2
sVRB-NC_BEZ-NC
p4156
I1
sVNN-TL_VBG-TL
p4157
I67
sVVBG-TL_CC-TL
p4158
I2
sVFW-NN$_FW-NNS
p4159
I2
sVWRB_DT+BEZ
p4160
I23
sVABN_NP-TL
p4161
I1
sVMD-HL_``
p4162
I1
sVAT_QLP
p4163
I1
sV)_NN
p4164
I426
sVRBT_AT
p4165
I11
sV)_NR
p4166
I6
sV)_NP
p4167
I403
sVMD_start
p4168
I134
sVHV_PPSS
p4169
I767
sV._NP$-TL
p4170
I3
sVFW-NP_RB
p4171
I1
sVNPS_OD-TL
p4172
I1
sV)-HL_VBN-HL
p4173
I1
sV*-HL_start
p4174
I2
sVBEG_''
p4175
I1
sVNPS_JJ
p4176
I91
sVFW-AT_VBN
p4177
I1
sV``_NR$-TL
p4178
I3
sVIN_NPS$
p4179
I2
sVHVD_start
p4180
I32
sVNP_VB+IN
p4181
I1
sVMD_IN
p4182
I1
sVVBG-HL_CC-HL
p4183
I5
sVWRB_PN
p4184
I2
sVNP-TL_NN
p4185
I11
sVVB-NC_WRB
p4186
I1
sVVB_VBN+TO
p4187
I3
sVPPO_PPO
p4188
I2
sVDOD*_NNS
p4189
I9
sVPPS_PPLS
p4190
I1
sVPPO_PPS
p4191
I1
sV*_DT+BEZ
p4192
I6
sVNP-TL_NP
p4193
I15
sVNN-NC_PP$-NC
p4194
I6
sVBER_PPLS
p4195
I11
sVBER-NC_NNS-NC
p4196
I3
sVHVZ_VBZ
p4197
I2
sVNN_CC
p4198
I4326
sVCC_VB-NC
p4199
I1
sVFW-BEZ_FW-NN
p4200
I1
sVNN_CD
p4201
I1633
sVHVZ_VBN
p4202
I2
sVUH_PN+BEZ
p4203
I1
sVNN_CS
p4204
I992
sVHVZ_VBG
p4205
I9
sVHVZ_VBD
p4206
I1
sVPPSS+HV_WDT
p4207
I4
sVNPS_PPO
p4208
I2
sV''_AP-NC
p4209
I1
sVIN-HL_``
p4210
I2
sVPPS+MD_VBD
p4211
I7
sVPPS+MD_VBZ
p4212
I3
sVNN-TL_NN$
p4213
I9
sVNR_PPLS
p4214
I1
sVJJR-HL_NNS-HL
p4215
I1
sVNN-TL_NNS
p4216
I7
sVRBR_PPS+HVD
p4217
I1
sVPPSS-NC_WRB-NC
p4218
I1
sVNPS_NNS
p4219
I1
sV--_DOD*
p4220
I1
sVRBT_PPO
p4221
I5
sVCC-TL_NP$-TL
p4222
I1
sVVB-HL_RB-HL
p4223
I2
sV''_RB-NC
p4224
I5
sV(_NNS-TL
p4225
I27
sVJJS-TL_VBZ
p4226
I1
sVJJ-NC_VB-NC
p4227
I1
sV*_DOD
p4228
I441
sV*_DOZ
p4229
I226
sVJJS-TL_VBD
p4230
I1
sVHV*_--
p4231
I1
sVNPS_JJS
p4232
I2
sVNPS_JJR
p4233
I1
sVPPSS+HVD_VB
p4234
I3
sVNPS_JJT
p4235
I2
sVNN+BEZ_AT
p4236
I13
sV(_:
p4237
I30
sVAT_DTI
p4238
I3
sVRB-HL_MD-HL
p4239
I1
sVVBN-HL_BEDZ-HL
p4240
I1
sVBED_DT
p4241
I2
sVVBN-TL_AT
p4242
I390
sV(_,
p4243
I50
sV(_(
p4244
I14
sVAT-TL_JJ
p4245
I2
sVPPSS_--
p4246
I91
sVNPS-TL_NP$
p4247
I1
sVJJR_WRB
p4248
I3
sVJJ-TL_WQL-TL
p4249
I1
sVTO_NR-TL
p4250
I4
sVWPS_PN
p4251
I90
sVABL_NNS
p4252
I2
sVVBG+TO_EX+BEZ
p4253
I1
sVOD-TL_start
p4254
I1
sVNPS$_NP
p4255
I2
sVDT_NN
p4256
I202
sVDT_NP
p4257
I22
sVDT_NR
p4258
I5
sVUH-TL_NN
p4259
I1
sVVBN_FW-NNS
p4260
I1
sVPP$_RB
p4261
I168
sVMD_VBZ
p4262
I9
sVVB-TL_WRB
p4263
I1
sVNR-NC_CC
p4264
I1
sVMD_VBN
p4265
I42
sVJJ-TL_CC-TL
p4266
I26
sVPP$_RP
p4267
I218
sVMD_VBD
p4268
I19
sVMD_VBG
p4269
I30
sVJJR_CC-TL
p4270
I1
sVAT_PPLS
p4271
I8
sVIN-NC_VBD-NC
p4272
I5
sV,_JJ-TL
p4273
I37
sVAT_BEDZ*
p4274
I21
sVNNS$_PN$
p4275
I1
sVVB_PPSS
p4276
I3183
sVWQL_RB
p4277
I7
sVJJ-NC_AP-NC
p4278
I1
sVABN_PP$$
p4279
I1
sV:_VB
p4280
I50
sVNP+BEZ_start
p4281
I3
sVUH-NC_--
p4282
I1
sVDO_NP-TL
p4283
I1
sV''_PPS+BEZ
p4284
I1
sVCC_IN
p4285
I227
sVPPS+HVD_NN
p4286
I11
sVBEZ_FW-PPL
p4287
I2
sVJJ-NC_NN-NC
p4288
I2
sV*_PPSS+HVD
p4289
I1
sVBEG_JJ
p4290
I10
sVBED_PPLS
p4291
I1
sVJJR_``
p4292
I9
sVWPO_(
p4293
I1
sV:_PPO
p4294
I34
sV:_PPL
p4295
I7
sVWPO_,
p4296
I15
sVBEZ-HL_RB-HL
p4297
I1
sVBE-TL_NN-TL
p4298
I1
sV:_PPS
p4299
I4
sVVBG_HVZ
p4300
I4
sVNP_CS
p4301
I1173
sV``_WQL
p4302
I1
sVNNS-TL_VB-TL
p4303
I2
sVNR_PPSS
p4304
I1
sVNP_CD
p4305
I146
sVPPL-NC_VBG-NC
p4306
I1
sVNP_CC
p4307
I1946
sV)-HL_CD-HL
p4308
I77
sV*-TL_MD-TL
p4309
I1
sVBER_--
p4310
I14
sVVBG_HVD
p4311
I2
sVCC_NIL
p4312
I1
sVBEM_RB
p4313
I4
sVAP_start
p4314
I464
sVNNS_RP
p4315
I85
sVABX_BEDZ
p4316
I10
sVJJ-TL_HV
p4317
I1
sVNNS-HL_(-HL
p4318
I1
sVNNS_RB
p4319
I216
sV.-HL_NN-HL
p4320
I123
sVPPS_DO*
p4321
I1
sVRB-NC_AT
p4322
I1
sVPN$_,
p4323
I3
sVAP_PN
p4324
I46
sVWRB+DOD_``
p4325
I5
sVHVN_PPO
p4326
I2
sVVBG-TL_NN-TL
p4327
I20
sV._OD-TL
p4328
I7
sVRB_RP
p4329
I354
sV``_PP$
p4330
I85
sVVBD_PPO
p4331
I54
sVVBD_PPL
p4332
I27
sVCC_WRB
p4333
I20
sVPPSS+MD_NNS
p4334
I7
sVNN$_JJS
p4335
I1
sVVBD_PPS
p4336
I6175
sVRB_RB
p4337
I1003
sVWP$_NN-TL
p4338
I3
sV:_WRB
p4339
I2
sVFW-IN-TL_VBD-TL
p4340
I1
sVRB_PN+HVD
p4341
I1
sVVB-NC_VB-NC
p4342
I1
sVVBG-NC_VBN-NC
p4343
I2
sVBEZ_VBG-NC
p4344
I1
sVBEDZ_JJ-TL
p4345
I6
sVRB_PN+HVZ
p4346
I1
sVRBR_VBN
p4347
I56
sVPPSS-TL_``
p4348
I2
sVVB+PPO_CC
p4349
I1
sVRBR_VBD
p4350
I55
sVRBR_VBG
p4351
I22
sVPP$_WRB
p4352
I106
sVJJ-TL_IN-HL
p4353
I1
sVWDT+BEZ_DT+BEZ
p4354
I1
sVRBR_VBZ
p4355
I15
sVVBG_NNS$
p4356
I7
sVVBD_PP$
p4357
I1
sVFW-IN_FW-NN$-TL
p4358
I1
sVNP_FW-AT
p4359
I1
sV``_PPO
p4360
I27
sV``_PPL
p4361
I4
sVPPSS_HV
p4362
I59
sVNP-NC_IN-NC
p4363
I3
sVRBR_CS
p4364
I2
sVWPS-HL_NNS-HL
p4365
I2
sVOD_CC
p4366
I42
sVOD_CD
p4367
I8
sVRBR_CC
p4368
I69
sVBEZ_NN-TL
p4369
I184
sVWPS+BEZ_VBG
p4370
I1
sVRBR_CD
p4371
I1
sVOD_CS
p4372
I3
sVJJ-NC_WDT+BEZ-NC
p4373
I1
sVVBG-HL_AT-HL
p4374
I9
sV(-HL_--
p4375
I9
sVIN-NC_VB-NC
p4376
I5
sVIN-TL_RB-TL
p4377
I8
sV:_PP$$
p4378
I2
sVVBZ_start
p4379
I34
sVJJT_PN$
p4380
I3
sVDT-HL_JJ-HL
p4381
I1
sVPPSS+MD_--
p4382
I5
sV,_NP
p4383
I5586
sV,_NR
p4384
I236
sV,_NN
p4385
I18279
sVJJR_CS
p4386
I17
sVPPLS_,
p4387
I1
sVRB_NN-NC
p4388
I1
sVPN_NN
p4389
I48
sV*_TO
p4390
I1
sVRB-NC_VBD
p4391
I1
sVJJR_CC
p4392
I100
sVBEZ_NR-NC
p4393
I2
sVPN_NR
p4394
I1
sVPN_NP
p4395
I4
sVCD_NP$-TL
p4396
I3
sVVBN_JJ-TL
p4397
I1
sVVBG+TO_NP+BEZ
p4398
I2
sVCD_''
p4399
I2
sVVBN_EX+BEZ
p4400
I1
sVFW-NNS-NC_NN
p4401
I1
sV,-HL_NN-TL-HL
p4402
I8
sVJJ-HL_PPS+BEZ-HL
p4403
I1
sVWDT_DOZ
p4404
I2
sVWDT_DOD
p4405
I4
sV)_FW-RB
p4406
I1
sVJJ-TL_VB-TL
p4407
I5
sVPPS+BEZ_--
p4408
I7
sVBEZ_VBG
p4409
I57
sVPPSS_PPLS
p4410
I1
sVRB_FW-WDT
p4411
I1
sVVBN_AT
p4412
I1468
sVVBN_AP
p4413
I86
sVNPS-HL_CD-HL
p4414
I1
sVABL_RP
p4415
I3
sVWPO_ABN
p4416
I3
sVCS_PPLS
p4417
I17
sVJJ_OD-NC
p4418
I1
sVDO_DO*
p4419
I1
sVVB_VB
p4420
I130
sVABN_HVN
p4421
I2
sVNNS$_DTS
p4422
I2
sVIN-TL_OD-TL
p4423
I2
sVAP_MD
p4424
I3
sVABN_HVZ
p4425
I5
sVRBT_CD
p4426
I1
sVMD_'
p4427
I2
sVPPS_BEZ
p4428
I81
sVRBT_CC
p4429
I3
sVMD_,
p4430
I496
sVDT_PPLS
p4431
I2
sVMD_*
p4432
I2
sVMD_(
p4433
I1
sVMD_)
p4434
I32
sVPPS_BEN
p4435
I1
sVRBT_CS
p4436
I1
sVMD_:
p4437
I2
sV.-NC_JJ-NC
p4438
I1
sVPP$-HL_IN-HL
p4439
I2
sVVBZ_DOZ
p4440
I2
sVIN_VBN-TL
p4441
I2
sVCS_HVZ
p4442
I3
sV``_QL
p4443
I16
sV,-NC_NN-NC
p4444
I2
sVCS_HVG
p4445
I1
sVCS_HVD
p4446
I5
sVCC_FW-NN-TL
p4447
I8
sVCS_HVN
p4448
I3
sVQL-HL_BEZ-HL
p4449
I1
sVBEDZ-NC_PP$-NC
p4450
I1
sVIN-HL_VBZ-HL
p4451
I8
sVJJT_AT-TL
p4452
I1
sVVBZ_TO-NC
p4453
I1
sV._DT
p4454
I232
sVTO_CS
p4455
I146
sVTO_CD
p4456
I36
sVTO_CC
p4457
I288
sV._DO
p4458
I89
sV)_HV
p4459
I1
sVDOD*_``
p4460
I3
sVWRB_NNS-TL
p4461
I4
sVNPS_PPLS
p4462
I1
sV''_DTS
p4463
I3
sVDO_NN
p4464
I33
sVIN-TL_NNS-TL
p4465
I146
sV''_VBG-TL
p4466
I4
sVIN-HL_RB-HL
p4467
I3
sVHVG_``
p4468
I1
sVHVD*_PPS
p4469
I44
sVOD-TL_,
p4470
I12
sV'_DT
p4471
I2
sVDOD_CD
p4472
I4
sVDOD_CC
p4473
I49
sVDOD_CS
p4474
I17
sVQL_PPS+HVD
p4475
I1
sVWRB_NR
p4476
I8
sVWRB_NP
p4477
I48
sVCD_NPS$
p4478
I1
sVUH_VB
p4479
I6
sVWRB_NN
p4480
I700
sVNN_FW-JJ
p4481
I2
sV``_BEN
p4482
I9
sVJJ_NP$-HL
p4483
I2
sV``_BEG
p4484
I13
sV``_BED
p4485
I18
sVPPS_NN$
p4486
I1
sVJJ-TL_PP$-TL
p4487
I3
sVJJ-NC_BEDZ-NC
p4488
I1
sV``_BEZ
p4489
I39
sV``_BER
p4490
I14
sV)_)
p4491
I9
sVBEG_(
p4492
I1
sVIN_PN+BEZ
p4493
I1
sVAP_WRB
p4494
I66
sVJJ-TL_BEZ-TL
p4495
I2
sVNN_AP-TL
p4496
I1
sVCD_,
p4497
I1049
sVPPSS+BEM_CS
p4498
I24
sVCD_(
p4499
I351
sVCD_)
p4500
I29
sVCD_*
p4501
I22
sVWRB_VBN
p4502
I103
sVWRB_VBD
p4503
I114
sVWRB_VBG
p4504
I48
sVWRB_VBZ
p4505
I41
sVPPSS+BEM_CD
p4506
I1
sVCD_:
p4507
I37
sV*_BEN
p4508
I1
sV(_``
p4509
I5
sVWPS_JJ
p4510
I20
sVBEG_BER
p4511
I41
sVBEG_BEZ
p4512
I61
sVNN_PPSS+MD
p4513
I1
sV(_RB-TL
p4514
I3
sVBEG_BED
p4515
I20
sVFW-IN-TL_,
p4516
I1
sVWDT_JJ-TL
p4517
I2
sVTO_VBG
p4518
I639
sVNR-HL_VB-HL
p4519
I1
sVVBN-TL_OD
p4520
I1
sVPPSS-HL_CS-HL
p4521
I9
sVRB_IN
p4522
I1009
sVWP$_start
p4523
I3
sVPP$_PPSS+BER
p4524
I2
sVDTX_RB
p4525
I1
sVRP_DT
p4526
I9
sVFW-CC-TL_FW-JJ-TL
p4527
I4
sVJJ_VBZ
p4528
I304
sVCD_PPSS
p4529
I2
sVNNS$-TL-HL_start
p4530
I1
sVPPSS+BER_RB
p4531
I7
sVPPSS+BER-NC_IN
p4532
I1
sVJJ_VBN
p4533
I737
sVWRB+DO_``
p4534
I1
sVJJ_VBG
p4535
I637
sVJJ_VBD
p4536
I658
sV''_QLP
p4537
I5
sVABX_PPO-NC
p4538
I1
sVBE_DT
p4539
I9
sVVB_PPSS+MD
p4540
I310
sVWDT_CC
p4541
I190
sVNN+BEZ-TL_JJ-TL
p4542
I1
sVWDT_CD
p4543
I20
sVBEZ_DO
p4544
I18
sV--_UH
p4545
I13
sVBEZ_DT
p4546
I613
sVBEDZ_NP$-TL
p4547
I1
sVWDT_CS
p4548
I54
sVDT_HV
p4549
I10
sVCS_JJ-TL
p4550
I2
sVRB_VBN
p4551
I1303
sVVBN_HVZ*
p4552
I13
sVWDT_HV
p4553
I1
sVPP$_TO
p4554
I4
sVQL_BEDZ*
p4555
I12
sV,_PPSS-NC
p4556
I2
sVFW-IN-TL_NP
p4557
I1
sVBEZ*_NP
p4558
I2
sVBER_NNS
p4559
I1565
sV._PPO-TL
p4560
I1
sVBEZ*_NN
p4561
I15
sV,_UH
p4562
I339
sVNR-HL_VBN-HL
p4563
I1
sVIN-HL_NNS-HL
p4564
I97
sVNP_NNS$-TL
p4565
I3
sVHV_WPS
p4566
I138
sVFW-JJ-TL_NP$-TL
p4567
I1
sVCD-TL_IN
p4568
I39
sV._RB-TL
p4569
I1
sVWRB-HL_AT-HL
p4570
I1
sVNN-HL_''
p4571
I2
sVCC_OD
p4572
I66
sV,_VBG-NC
p4573
I1
sVNN_NPS$
p4574
I16
sVFW-NNS_FW-NNS
p4575
I1
sVIN_''
p4576
I385
sVIN-TL_CD-TL
p4577
I5
sVJJ-HL_start
p4578
I181
sVDO_NPS
p4579
I3
sVNN_``
p4580
I770
sVBEZ_PPLS
p4581
I1
sVFW-RB-TL_FW-*-TL
p4582
I1
sV,_NN$
p4583
I6
sV,-TL_CD-TL
p4584
I4
sVHVG_BE
p4585
I2
sVNP_AP
p4586
I89
sVNP_AT
p4587
I2228
sVHVD_WPS
p4588
I272
sVVBD_``
p4589
I47
sVVBG_JJ
p4590
I425
sVVB_--
p4591
I49
sV--_NP$-TL
p4592
I1
sVFW-NN-TL_FW-IN+AT-TL
p4593
I8
sVPPS+BEZ_JJ
p4594
I5
sVIN-HL_WDT-HL
p4595
I1
sVVBD-NC_IN
p4596
I1
sVPPS_VB-NC
p4597
I1
sVCC-HL_)-HL
p4598
I1
sVVBZ_FW-NN-TL-NC
p4599
I1
sVHV-HL_PPSS-HL
p4600
I1
sVOD_BEDZ
p4601
I7
sVJJR_NP$
p4602
I5
sVAP_VB
p4603
I254
sVNN$-TL_CD
p4604
I2
sV,_NNS
p4605
I7371
sVBEM_start
p4606
I2
sVUH-TL_CC
p4607
I1
sVNN$-TL_CS
p4608
I1
sVVBN_VBN
p4609
I64
sVNP+BEZ_VBZ
p4610
I1
sVVBN_VBD
p4611
I152
sVRB-NC_'
p4612
I1
sVFW-NP_FW-VB
p4613
I2
sVVBN_VBG
p4614
I68
sVVBN_VBZ
p4615
I40
sVRB_TO
p4616
I29
sV''_NN-TL
p4617
I449
sV,_BEDZ*
p4618
I1
sVPPO_JJ
p4619
I9
sV:_NN-TL
p4620
I28
sVPP$_WPO
p4621
I3
sVNP-TL-HL_start
p4622
I2
sVVB_PPS+MD
p4623
I74
sVPP$_WPS
p4624
I7
sVCD_HVD
p4625
I33
sVCD_HVG
p4626
I5
sVIN_FW-JJ
p4627
I5
sVUH_NNS$
p4628
I1
sVCD_HVN
p4629
I5
sVPPSS_NN
p4630
I724
sVPPSS_NP
p4631
I44
sVPPSS_NR
p4632
I16
sVPPL-NC_ABX
p4633
I1
sVVBN_PPSS
p4634
I57
sVIN_BED*
p4635
I1
sVCD_HVZ
p4636
I22
sV,_FW-VB-NC
p4637
I1
sVRBR_AT
p4638
I40
sVBE_MD*
p4639
I136
sVRBR_AP
p4640
I8
sVAT_NP-TL
p4641
I12
sVCS_VBG-NC
p4642
I1
sVNN_NN$-TL
p4643
I136
sVBER_VBG
p4644
I13
sVHVN_PPSS+HV
p4645
I12
sVPPS+MD_VB
p4646
I3
sVNN-TL_DT-TL
p4647
I6
sVBER_VBN
p4648
I36
sVWRB_NN-TL
p4649
I32
sVBER_VBZ
p4650
I1
sV,_''
p4651
I2032
sVBER_FW-NNS-TL
p4652
I1
sVBEN_PPL
p4653
I1
sVDT+BEZ_CS
p4654
I9
sVJJR_AT
p4655
I630
sVVBN-HL_BER-HL
p4656
I9
sVJJR_AP
p4657
I13
sVDT+BEZ_CC
p4658
I23
sVJJ-TL_VBG-TL
p4659
I2
sVBEN_PPS
p4660
I8
sV''_RBR
p4661
I20
sVWP$_--
p4662
I2
sVPPS-TL_WPS-TL
p4663
I3
sVIN_DOD
p4664
I35
sVAP_PPSS
p4665
I1
sVVB+JJ-NC_,
p4666
I1
sVWPS_DTI
p4667
I7
sVWPS_DTS
p4668
I219
sVFW-NNS-TL_FW-OD-TL
p4669
I1
sVVBD_OD
p4670
I13
sVNP-TL_CC
p4671
I63
sVNN_CD-TL
p4672
I20
sVFW-*_FW-WDT
p4673
I2
sVOD_NR$
p4674
I1
sVCD-TL_JJ-TL
p4675
I9
sVPP$_BEZ
p4676
I110
sVBEDZ_:
p4677
I1
sVIN-TL_,
p4678
I7
sVPP$_BER
p4679
I22
sV(_PPO
p4680
I18
sVAT_DT
p4681
I26
sVNN$-TL_``
p4682
I4
sVBEDZ_,
p4683
I449
sVAT_DO
p4684
I84
sVPP$_BEN
p4685
I14
sVBEDZ_(
p4686
I1
sVBEDZ_)
p4687
I28
sVBEDZ_'
p4688
I1
sVVBD_RBT
p4689
I2
sVVBD_RBR
p4690
I47
sVPP$_BED
p4691
I17
sVVB_PN
p4692
I43
sV*_DTI
p4693
I1
sVVBN-TL_NP-TL
p4694
I6
sV*_DTS
p4695
I2
sVDOD_WDT
p4696
I29
sVFW-IN_FW-RB
p4697
I2
sVBED_PPSS
p4698
I616
sVJJS_QL
p4699
I1
sV)-HL_CD-TL-HL
p4700
I1
sVRBT_MD
p4701
I5
sVJJ-NC_QL-NC
p4702
I2
sVFW-IN_NP-TL
p4703
I2
sVPPS_BEDZ
p4704
I69
sV(_DT+BEZ
p4705
I1
sVFW-JJ-TL_IN
p4706
I2
sVAT_WDT+BEZ
p4707
I14
sVBEDZ_IN
p4708
I9
sVAT-TL_BEDZ
p4709
I3
sVNN_BEZ
p4710
I184
sVDT_JJR
p4711
I1
sV''_FW-NP
p4712
I1
sVEX+BEZ_RB
p4713
I3
sVJJ_DTX
p4714
I4
sVNN_BER
p4715
I36
sVNR_DO
p4716
I1
sVFW-NNS-TL_AT
p4717
I5
sVJJ_DTS
p4718
I243
sVVBN_'
p4719
I5
sV,_VBZ-TL
p4720
I2
sVNR_DT
p4721
I10
sVRP_HVD
p4722
I7
sVNN_BEN
p4723
I25
sVJJ_DTI
p4724
I458
sVNN_BEM
p4725
I1
sV''_FW-NN
p4726
I27
sVNN_BED
p4727
I21
sVVBG_NNS-TL
p4728
I12
sVHV_:
p4729
I1
sVJJS-TL_OD
p4730
I1
sV--_PPSS
p4731
I11
sV._VBZ-TL
p4732
I1
sVJJ-HL_VBN-HL
p4733
I4
sVJJR_*
p4734
I3
sVJJR_)
p4735
I8
sVJJR_,
p4736
I37
sVPN$_VBD
p4737
I2
sVPN$_VBG
p4738
I8
sVJJR_'
p4739
I1
sVRP_WRB
p4740
I1
sVVBZ_PP$-NC
p4741
I1
sVIN_DOD*
p4742
I1
sVDO*_UH
p4743
I1
sVTO_AP
p4744
I131
sV._BE
p4745
I60
sV)_JJ
p4746
I89
sVNR_ABN
p4747
I1
sVAP$_DT
p4748
I8
sVAT_WRB
p4749
I802
sVNR_ABX
p4750
I2
sVNN$_NN
p4751
I53
sVVB-TL_IN
p4752
I2
sV--_NP$
p4753
I4
sVNN$-TL_(
p4754
I4
sVNN$-TL_)
p4755
I1
sVNPS_NN
p4756
I14
sVMD*_,
p4757
I24
sVNN$-TL_,
p4758
I3
sVDO_VB+PPO
p4759
I1
sVPPL-TL_IN-TL
p4760
I1
sVAP_JJS
p4761
I1
sVNPS_NP
p4762
I58
sVWPS+BEZ_CD
p4763
I2
sVCS-HL_NN-HL
p4764
I6
sVNN$-TL_:
p4765
I2
sVAT-TL_RB
p4766
I1
sVNNS_--
p4767
I76
sVVBD-TL_NN-TL
p4768
I1
sVFW-PPO_FW-VB
p4769
I1
sVJJ-TL_AT
p4770
I1414
sVJJ-TL_AP
p4771
I47
sV--_NPS
p4772
I8
sV''_,
p4773
I11
sV''_*
p4774
I14
sV''_)
p4775
I11
sV''_(
p4776
I1
sV''_'
p4777
I40
sVBER_CD-TL
p4778
I5
sVAP_DTI
p4779
I133
sVVBG-TL_JJ-TL
p4780
I6
sVAP_DTS
p4781
I33
sVTO_JJ-TL
p4782
I3
sVTO-HL_PN-HL
p4783
I1
sVPN_BED
p4784
I10
sVRBR_NNS
p4785
I124
sVAP_WPS
p4786
I6
sVDTI_EX
p4787
I7
sVIN-HL_WRB-HL
p4788
I1
sVAP_WPO
p4789
I5
sVCD-TL_CC-TL
p4790
I2
sVPN+HVZ_start
p4791
I1
sVCC_FW-IN+NP-TL
p4792
I1
sVBER*_PPSS
p4793
I16
sVNN-TL-HL_NNS-TL-HL
p4794
I2
sVPN_WPO
p4795
I3
sV''_DOZ*
p4796
I1
sVCD-HL_VBN-HL
p4797
I1
sVNP-TL_ABN
p4798
I2
sVDOZ*_NN-TL
p4799
I1
sVBER_DT
p4800
I2
sVNPS-TL_VB
p4801
I1
sVPPS-NC_JJ
p4802
I1
sVAP_WP$
p4803
I4
sVNNS$_AP
p4804
I6
sVNNS$_AT
p4805
I97
sVPPSS+HV_RB
p4806
I5
sVQL_NN-TL
p4807
I12
sVNN-TL_NR-TL
p4808
I9
sVNIL_NN-HL
p4809
I1
sVVBD_NP-TL
p4810
I52
sVCC_ABN
p4811
I16
sVAT-NC_BEZ-NC
p4812
I1
sVAT_NN+BEZ
p4813
I5
sVDO_DOZ
p4814
I1
sVRP_BE
p4815
I21
sVFW-UH_VBD
p4816
I1
sVCC_ABX
p4817
I1
sVPPSS+HVD_JJ
p4818
I1
sVPN_AT
p4819
I149
sVJJR_JJS
p4820
I1
sVJJR_JJT
p4821
I1
sVDTS-HL_IN-HL
p4822
I1
sVVBD_NP$
p4823
I1
sVABN_VBD
p4824
I75
sVFW-JJ_IN
p4825
I3
sVAT_BEZ*
p4826
I10
sVPP$_BER*
p4827
I1
sVVBD_NPS
p4828
I102
sVFW-VB_IN
p4829
I1
sV:-HL_RB-HL
p4830
I2
sVIN_FW-OD-NC
p4831
I1
sV,_HVD*
p4832
I1
sVBE_JJ
p4833
I2
sVDT_JJ
p4834
I30
sVBEZ_JJ
p4835
I59
sV'_NNS-TL
p4836
I3
sVNN_DT+BEZ
p4837
I2
sV``_AT-HL
p4838
I2
sVWRB+BER_``
p4839
I1
sVPPS+BEZ_ABN
p4840
I1
sVWDT_AP
p4841
I2
sVNR-HL_,-HL
p4842
I2
sVWDT_AT
p4843
I2
sVPP$_VB
p4844
I1663
sVFW-CC-TL_FW-NPS-TL
p4845
I1
sVPP$_WDT+BEZ
p4846
I4
sVBEDZ*_CC
p4847
I2
sVIN-TL_VBZ-TL
p4848
I3
sVBEG_:
p4849
I1
sVVB+IN_start
p4850
I1
sVJJT_BE
p4851
I6
sVWPS_PPS
p4852
I17
sVBEG_*
p4853
I9
sVWPS_PPO
p4854
I33
sVWPS_PPL
p4855
I4
sVBEG_,
p4856
I35
sV)_JJT
p4857
I2
sVFW-NN_FW-JJ
p4858
I18
sVWRB-TL_--
p4859
I1
sV)_JJR
p4860
I2
sVFW-*_FW-PPSS
p4861
I1
sV._FW-PPL
p4862
I2
sVEX_NN
p4863
I95
sVNNS-NC_NN-NC
p4864
I1
sVEX_NP
p4865
I8
sVPPSS+BER_start
p4866
I47
sVHV_WRB
p4867
I2
sVNPS-TL_AT-TL
p4868
I3
sVIN_FW-NNS-TL
p4869
I1
sVCC_MD
p4870
I47
sV.-HL_NP-HL
p4871
I44
sVDOD_NPS
p4872
I5
sVNP+BEZ_NP
p4873
I3
sVFW-VBD_,
p4874
I1
sV``_NN$
p4875
I7
sV(_AP
p4876
I7
sV(_AT
p4877
I15
sVHV_VBG+TO
p4878
I1
sVWPO_DTS
p4879
I3
sVBEDZ_PPSS
p4880
I335
sV:-HL_VB-HL
p4881
I19
sV._NN-NC
p4882
I12
sVDOZ_VB-NC
p4883
I1
sVQL_``
p4884
I104
sVHVD_WRB
p4885
I8
sV:-HL_DT-HL
p4886
I1
sVBEG_ABN
p4887
I1
sVNN$_NR
p4888
I3
sVNN$_NP
p4889
I8
sVOD_start
p4890
I54
sVPPLS_NN
p4891
I2
sVPPO_DT+BEZ
p4892
I4
sVCC-TL_JJ-TL
p4893
I18
sV,-NC_PPO-NC
p4894
I1
sVDO_start
p4895
I61
sVNNS$-TL_NP-TL
p4896
I4
sVVB-HL_NP-HL
p4897
I2
sVJJ-HL_PP$-HL
p4898
I1
sVJJ-TL-HL_JJ-TL-HL
p4899
I2
sV``_NNS
p4900
I47
sVWPS-TL_NN-TL
p4901
I3
sVNRS_IN
p4902
I7
sVPN+BEZ_``
p4903
I2
sVMD_ABN
p4904
I14
sVJJR_PPLS
p4905
I1
sV._NRS-TL
p4906
I1
sVVB-TL_NP-TL
p4907
I2
sVVBN-HL_CC-HL
p4908
I2
sV*_EX+BEZ
p4909
I4
sVRB_VB
p4910
I1457
sVBEZ_''
p4911
I61
sVMD_ABX
p4912
I2
sVPPO_HV
p4913
I50
sVHV_DOZ*
p4914
I6
sVDO_PPSS
p4915
I214
sVCD_JJ
p4916
I183
sVFW-NN-TL_NP
p4917
I2
sVVBG_HV
p4918
I11
sVPPS+MD_NNS
p4919
I3
sVNP$-TL_AT-TL
p4920
I1
sVNN-TL_NP$-TL
p4921
I79
sV,_FW-JJ
p4922
I3
sV._DOZ-TL
p4923
I1
sVMD_RBR
p4924
I5
sV._NP-TL
p4925
I247
sVMD_RBT
p4926
I1
sV)_NNS
p4927
I177
sVAT_PPSS+BEZ*
p4928
I1
sVIN-TL_BED
p4929
I1
sVFW-NN-TL_NN
p4930
I1
sVWDT+BEZ_CC
p4931
I1
sVPN_EX+BEZ
p4932
I12
sVEX_DTS
p4933
I2
sVJJ_CD$
p4934
I2
sVAP-HL_WRB-HL
p4935
I1
sVWDT+BEZ_CS
p4936
I1
sVPPO-TL_VB
p4937
I1
sVDT+BEZ_AP
p4938
I1
sVPPS_WPS-TL
p4939
I1
sVABX_PPSS
p4940
I19
sV'_NP$
p4941
I2
sVFW-NN_VBN
p4942
I5
sVBER-HL_NNS-HL
p4943
I3
sVFW-NN_VBG
p4944
I1
sVWRB_NNS
p4945
I236
sVFW-AT_IN
p4946
I1
sVVBN-TL_IN-TL
p4947
I13
sVBEZ*_NN-TL
p4948
I2
sVABN-TL_BER
p4949
I1
sVVBG_NR-TL
p4950
I3
sVPN_JJ
p4951
I25
sVPN-TL_IN-TL
p4952
I2
sVCC_PPLS
p4953
I16
sVBEDZ*_PPSS
p4954
I19
sVOD_NP$
p4955
I33
sVNP-HL_,-HL
p4956
I87
sVIN-HL_)-HL
p4957
I1
sVRB_QL
p4958
I2042
sVCC_NN$
p4959
I5
sV._DO-NC
p4960
I1
sVNN-HL_:-HL
p4961
I7
sVWDT-HL_:-HL
p4962
I1
sVQL_EX
p4963
I2
sVVBD_AT
p4964
I2
sVVBD_AP
p4965
I24
sVNN_PPSS
p4966
I16
sVNP+HVZ_NP
p4967
I2
sVJJ_NN-TL
p4968
I31
sV*_NNS
p4969
I44
sVVB-HL_PPO-HL
p4970
I1
sVJJ-TL_:
p4971
I4
sVAT_BE
p4972
I614
sVNP_VBD
p4973
I680
sVNP_VBG
p4974
I198
sVRP_PPS+BEZ
p4975
I4
sVVB_RB
p4976
I1756
sV,_PPS-NC
p4977
I2
sVNP_VBN
p4978
I287
sVNP_NP-TL
p4979
I17
sVCS_VB
p4980
I1373
sVPPS_WDT
p4981
I509
sVJJ-TL_(
p4982
I29
sVNP_NNS-TL
p4983
I20
sVJJ-TL_,
p4984
I165
sVVB_RP
p4985
I2
sVNP_VBZ
p4986
I89
sVJJ-TL_'
p4987
I2
sVFW-CC-TL_FW-NN-TL
p4988
I5
sVIN-HL_start
p4989
I55
sVVBN-TL_VB
p4990
I3
sVABN_''
p4991
I4
sVJJT_NR$-TL
p4992
I1
sVWDT+BEZ-NC_IN
p4993
I2
sVFW-IN_JJ
p4994
I1
sVPPS_WDT+DOD
p4995
I1
sVIN_VBG
p4996
I2923
sVIN_VBD
p4997
I4381
sVIN_VBN
p4998
I10453
sVNN+HVZ_AT
p4999
I3
sVDO_PPLS
p5000
I1
sV``_MD
p5001
I15
sV:-HL_NP-HL
p5002
I15
sVDOZ_EX
p5003
I2
sVIN_VBZ
p5004
I1289
sVDOD-NC_NN-NC
p5005
I1
sVIN-NC_JJR-NC
p5006
I1
sV,_AT
p5007
I10
sV``_JJT
p5008
I3
sVPPS+HVZ_``
p5009
I10
sVJJS-TL_IN
p5010
I8
sVWPS_NPS-TL
p5011
I2
sVAT_PPSS+HV
p5012
I1
sVNNS_EX+BEZ
p5013
I2
sV)_DT
p5014
I1
sVWDT_BEDZ*
p5015
I2
sVJJ-HL_AT-HL
p5016
I66
sV)_DO
p5017
I2
sVAT_PPS+BEZ
p5018
I87
sVNN_FW-NN
p5019
I14
sVAT_WPS
p5020
I6
sVCD-TL_CD-TL
p5021
I5
sVNN-TL_UH
p5022
I1
sVAT_WPO
p5023
I38
sVBEZ_WDT-NC
p5024
I1
sVBE_VBZ
p5025
I1
sVOD-HL_start
p5026
I2
sVPPS+MD_``
p5027
I9
sVCD-HL_RB-HL
p5028
I6
sVBE_VBN
p5029
I1
sVFW-VB_FW-PPSS
p5030
I3
sVPPSS-NC_``
p5031
I2
sVVBD_PP$$
p5032
I2
sVJJ-TL_CS
p5033
I53
sVHVZ_IN-NC
p5034
I2
sVNN$_NN-TL
p5035
I4
sVJJ-TL_CD
p5036
I32
sVTO-NC_VBZ
p5037
I1
sVFW-NNS_start
p5038
I3
sVJJ-TL_CC
p5039
I120
sV,_OD-TL
p5040
I4
sVWDT_FW-JJ
p5041
I1
sVDOZ*_''
p5042
I1
sVFW-TO+VB_FW-NR
p5043
I1
sV*_``
p5044
I54
sVPN_--
p5045
I19
sVWRB_JJ
p5046
I87
sVUH_RB
p5047
I2
sVWQL-TL_,
p5048
I1
sVFW-CC_,
p5049
I11
sVPPO_BEDZ
p5050
I1
sV,_FW-NPS
p5051
I1
sVPP$-NC_VBZ
p5052
I1
sVVB_VBD
p5053
I18
sVPN_DO*
p5054
I1
sV``_VB-TL
p5055
I1
sVFW-IN-TL_FW-NN-TL
p5056
I14
sVVBZ-HL_NN-TL-HL
p5057
I3
sVJJ_NP$-TL
p5058
I5
sVDO_FW-NN-TL
p5059
I1
sVVBG+TO_BER*
p5060
I1
sVWPO_start
p5061
I3
sVJJ_WDT
p5062
I83
sVPPS+BEZ_VBZ
p5063
I5
sVPPL_BE
p5064
I1
sVDTI_HVD
p5065
I22
sVDTI_HVG
p5066
I7
sVWPS_NR
p5067
I2
sVWPS_NP
p5068
I93
sVDTI_HVN
p5069
I3
sVWPS_NN
p5070
I1356
sVDTI_HVZ
p5071
I19
sV''_IN
p5072
I53
sVPPSS+HV_PN
p5073
I2
sVNR$_WRB
p5074
I1
sVPN_DOD
p5075
I21
sVNNS$_CS
p5076
I2
sVIN_FW-*
p5077
I2
sVBEDZ*_WPS
p5078
I2
sVQL_NNS$
p5079
I1
sVNNS$-TL_PP$
p5080
I1
sVQL_CD-TL
p5081
I1
sVPN_DOZ
p5082
I7
sVNNS$_CC
p5083
I9
sVNIL_NN-NC
p5084
I1
sVNNS$_CD
p5085
I23
sVPPO-NC_IN-NC
p5086
I1
sVPPS+HVZ_CC
p5087
I1
sVPPSS-NC_BER-NC
p5088
I2
sVVBN_NN$
p5089
I11
sVNNS-HL_RP-HL
p5090
I1
sVNP-TL_FW-IN
p5091
I1
sVDT-TL_HVZ-TL
p5092
I1
sVPPSS+BER_VB
p5093
I20
sVNP+MD_JJ-TL
p5094
I1
sVTO_``
p5095
I41
sVNR-TL_VBD
p5096
I1
sVNNS$-NC_PP$-NC
p5097
I1
sVJJ-TL_start
p5098
I102
sVVB-HL_TO-HL
p5099
I51
sVVBN-TL-NC_'
p5100
I1
sVNPS-TL_CC-TL
p5101
I1
sVCC_NR-TL
p5102
I25
sVNN_WPS+BEZ
p5103
I2
sV)_VB-TL
p5104
I1
sVBE_HV
p5105
I1
sVHVN_VBD
p5106
I1
sVWPS+HVD_PN
p5107
I1
sVPP$_ABX
p5108
I15
sVVBN_NNS
p5109
I1157
sVOD-HL_JJ-HL
p5110
I1
sVFW-NN-TL_FW-IN-TL
p5111
I11
sVFW-NN_``
p5112
I19
sVABL_EX+BEZ
p5113
I1
sVPP$_ABN
p5114
I126
sVBEZ_HV
p5115
I2
sVPP$_HV
p5116
I50
sVNN-TL_--
p5117
I11
sVRB+BEZ_start
p5118
I9
sVNNS$_(
p5119
I1
sVNNS$_,
p5120
I7
sVCD-NC_IN
p5121
I2
sVNP-TL_WPS-TL
p5122
I1
sVVBG_FW-NN
p5123
I2
sVJJ_PN
p5124
I133
sVPPSS-NC_CC
p5125
I1
sVFW-AT_VB
p5126
I1
sVPPS_:
p5127
I47
sVVBN_*
p5128
I370
sVVBN_(
p5129
I34
sVVBN_)
p5130
I31
sV.-HL_BE-HL
p5131
I1
sVNR_NNS-TL
p5132
I2
sVPPO-TL_VB-TL
p5133
I2
sVBEZ*_PPS
p5134
I27
sVPPS_,
p5135
I2717
sVPPS_*
p5136
I5
sVPPS_)
p5137
I18
sVPPS_(
p5138
I27
sVFW-CS_``
p5139
I1
sVNN_:-HL
p5140
I1
sVNP-NC_``
p5141
I1
sVHV_EX
p5142
I25
sVWPS+BEZ_:
p5143
I1
sVCS_EX
p5144
I1
sVJJ-TL_``
p5145
I107
sV*_CD
p5146
I3
sV*_CC
p5147
I258
sVPPS+HVZ_start
p5148
I20
sV'_JJ
p5149
I29
sV*_CS
p5150
I99
sVNP-HL_CD-TL-HL
p5151
I1
sVNNS_NN$
p5152
I204
sVNN-TL_NPS$-TL
p5153
I2
sVBER_''
p5154
I18
sVJJ_RBT
p5155
I1
sVJJ_RBR
p5156
I25
sVRB_QLP
p5157
I4
sV(_WRB
p5158
I1
sVNP$_ABN
p5159
I5
sVNN-HL_NNS-HL
p5160
I12
sVAT-TL_PP$
p5161
I1
sV(_CD
p5162
I73
sVFW-*-TL_FW-NN-TL
p5163
I1
sVJJT-NC_AT-NC
p5164
I1
sV(_CC
p5165
I54
sVVB_NPS
p5166
I64
sV(_CS
p5167
I6
sVVB-TL_AT
p5168
I3
sVMD*_WRB
p5169
I9
sVHVG_DTS
p5170
I1
sVNNS_HVZ
p5171
I17
sVHVG_DTX
p5172
I1
sVPPSS+MD-NC_RB
p5173
I1
sVNNS_HVG
p5174
I4
sVPPSS+BEM_``
p5175
I88
sVNNS_HVD
p5176
I34
sVPPS_UH
p5177
I3
sVNNS_HVN
p5178
I9
sVHVG_DTI
p5179
I1
sV,_CD-HL
p5180
I10
sVCD_PN
p5181
I1
sVNNS-NC_NN
p5182
I2
sVNNS_NNS
p5183
I142
sVJJ_RB$
p5184
I1
sVABN_BED*
p5185
I1
sVNP_NPS
p5186
I9
sVNNS-TL_NN$-TL
p5187
I5
sVBEDZ*_EX
p5188
I9
sVNPS-TL_NP-TL
p5189
I7
sVPPSS_DTS
p5190
I8
sVPP$_WRB+DOD
p5191
I1
sVVBN-TL_start
p5192
I6
sVVBG_NP$-TL
p5193
I1
sVABX_(
p5194
I4
sVWDT_``
p5195
I148
sVBEDZ_``
p5196
I8
sV''_NN-HL
p5197
I9
sVFW-JJ-TL_(
p5198
I1
sVNNS_NNS$
p5199
I104
sVDOD*_,
p5200
I15
sV(_DTS
p5201
I2
sVFW-NN_CS
p5202
I3
sVDOZ_VBD
p5203
I1
sVDOZ_VBG
p5204
I1
sVNN$-HL_NP-HL
p5205
I1
sVVB+PPO_MD
p5206
I1
sVNP-HL_BEZ-HL
p5207
I1
sVFW-NN_CC
p5208
I9
sV(_DTI
p5209
I1
sVPPSS_RP
p5210
I12
sVPPSS+MD_RB
p5211
I18
sVPPSS_RB
p5212
I463
sVNP_NP$
p5213
I56
sV''_PN-TL
p5214
I1
sVQL-TL_NN$-TL
p5215
I1
sVWDT+BEZ-TL_``
p5216
I1
sVWQL_``
p5217
I5
sVJJ-TL_WPS
p5218
I1
sVHV-TL_``
p5219
I1
sVNR-NC_VB-NC
p5220
I1
sVDO_MD*
p5221
I20
sVHVD_NPS
p5222
I17
sVMD_NN-TL
p5223
I192
sV''_BER*
p5224
I1
sVMD_JJ-TL
p5225
I9
sV'_(
p5226
I1
sVVBZ_VBD-NC
p5227
I1
sVVBN_WPS+HVD
p5228
I4
sVFW-AT+NN-TL_start
p5229
I2
sVPPSS_PPS
p5230
I1
sVNN-NC_VBG
p5231
I1
sVNN-NC_VBN
p5232
I2
sVFW-NN$_FW-IN
p5233
I1
sVAP_QLP
p5234
I1
sVAT-TL_WPO-TL
p5235
I2
sVPP$-NC_,-NC
p5236
I1
sVRB_NN+BEZ
p5237
I3
sVPN_HV
p5238
I37
sVHVD_NP$
p5239
I1
sVWP$_PPO
p5240
I2
sV''_NIL
p5241
I3
sVRBT_RP
p5242
I1
sVVB_FW-JJ-TL
p5243
I1
sVPPS_NIL
p5244
I1
sVQL_CC
p5245
I410
sVVBD_CC
p5246
I2236
sVVBD_CD
p5247
I110
sVQL_CD
p5248
I30
sVBED*_PPO
p5249
I1
sVIN_FW-RB-TL
p5250
I1
sVRB_NPS-TL
p5251
I1
sVQL_CS
p5252
I74
sVVBD_CS
p5253
I15
sVRBT_HVD
p5254
I1
sVAT_--
p5255
I439
sVIN_JJ-TL
p5256
I14
sVBEZ_WDT
p5257
I378
sVRP_BEDZ
p5258
I59
sVVBN-HL_NNS-HL
p5259
I21
sVVBD_NPS-TL
p5260
I3
sVDT_VBZ
p5261
I73
sV*_WPO
p5262
I1
sVVB-TL_(
p5263
I9
sVDT_VBG
p5264
I160
sV*_WPS
p5265
I2
sVDT_VBD
p5266
I218
sVNP-HL_CC-TL-HL
p5267
I1
sV'_ABN
p5268
I1
sV(_BER
p5269
I4
sVDT_VBN
p5270
I148
sVWQL_PPO
p5271
I2
sV(_BEZ
p5272
I1
sVQL_HVZ
p5273
I20
sV--_RP
p5274
I33
sVQL_HVG
p5275
I2
sVQL_HVD
p5276
I20
sVNN-TL-HL_IN-HL
p5277
I2
sVTO_EX
p5278
I2
sVRBT_IN
p5279
I3
sVIN-NC_``
p5280
I3
sVPPO_NNS
p5281
I2
sVPPSS+BEM_start
p5282
I61
sVDTS_JJ
p5283
I5
sVHVD_NP-TL
p5284
I12
sVEX+BEZ_VB
p5285
I3
sVNNS-HL_JJ-TL-HL
p5286
I1
sVNN_PPS+BEZ
p5287
I6
sV``_OD
p5288
I4
sVVB-NC_CS
p5289
I2
sVEX+MD_``
p5290
I1
sVFW-NN-TL_start
p5291
I1
sVVB-NC_CC
p5292
I1
sVVB+PPO_``
p5293
I22
sVIN-HL_NPS-HL
p5294
I1
sVHV-NC_NNS
p5295
I1
sVHVD_NN-NC
p5296
I1
sVNNS_NPS$
p5297
I2
sVVBZ-HL_NP-TL-HL
p5298
I1
sVHVN_HV*
p5299
I3
sVHVN_BEN
p5300
I1
sVNP_``
p5301
I408
sVTO-NC_JJ-NC
p5302
I1
sV--_VBG
p5303
I57
sVCC-TL_``
p5304
I2
sV,_WRB
p5305
I206
sVCD_VBN
p5306
I156
sVFW-AT-TL_,
p5307
I2
sVWRB_HV
p5308
I1
sVFW-AT-TL_*
p5309
I1
sVRBR_``
p5310
I4
sVPPSS+BER_VBG
p5311
I2
sVABX_NN-NC
p5312
I1
sVNPS_BE
p5313
I4
sVFW-IN+AT-T_FW-NN-TL
p5314
I1
sV''_VBG-NC
p5315
I1
sVRP_WPS+BEZ
p5316
I1
sVVB-HL_MD*-HL
p5317
I1
sV''_FW-JJ
p5318
I7
sVRB_FW-JJ
p5319
I1
sVWDT_NP-TL
p5320
I8
sV,_NPS-TL
p5321
I10
sVCS_BE
p5322
I41
sVNN_FW-NN-TL
p5323
I2
sVCC_FW-NN-NC
p5324
I1
sVHVN_HVD*
p5325
I3
sVNN-TL_DTI
p5326
I8
sVNR_NP$
p5327
I3
sVNNS_OD-TL
p5328
I2
sVBE_,
p5329
I44
sVBE_*
p5330
I206
sVVBD_PPSS
p5331
I2854
sVBE_(
p5332
I2
sV*_PPS+BEZ
p5333
I21
sVIN-HL_NN-TL
p5334
I1
sV)_OD-TL
p5335
I1
sVCD-TL_``
p5336
I5
sVNN-TL_DTS
p5337
I3
sVBEG_BEDZ
p5338
I36
sVEX+BEZ_PPO
p5339
I1
sVJJ-TL_NN-TL
p5340
I132
sVNN-HL_NNS$-HL
p5341
I1
sVBEZ-TL_DT-TL
p5342
I1
sVNN$-TL_IN-TL
p5343
I5
sVDTS_DO*
p5344
I1
sVPPL_HVD
p5345
I1
sVDTI_AP
p5346
I6
sVJJ-TL_)
p5347
I2
sVFW-JJ-TL_NP-TL
p5348
I3
sV.-HL_RB-HL
p5349
I4
sVWPS_''
p5350
I17
sVBER_FW-NPS
p5351
I1
sVDTS_DOD
p5352
I3
sVMD-HL_EX-HL
p5353
I1
sV''_OD
p5354
I2
sVVB_VBG+TO
p5355
I9
sVPPSS+HV_VB
p5356
I13
sVDT_WPS+BEZ
p5357
I1
sVWRB_QLP
p5358
I3
sVPPSS+MD_PPSS+MD
p5359
I1
sVCS-HL_VB-HL
p5360
I1
sVNN_NR$-TL
p5361
I4
sVPP$-TL_NN-TL
p5362
I1
sVDOD*_CD
p5363
I2
sVQL_NP-TL
p5364
I3
sV(_FW-NN-TL
p5365
I9
sVRP_NR
p5366
I1
sVRP_NP
p5367
I27
sVRP_NN
p5368
I303
sVAT_JJT-NC
p5369
I1
sVVBN-TL_IN
p5370
I28
sV)_BEN
p5371
I1
sVPPSS+HVD_NN
p5372
I6
sV)_BEZ
p5373
I2
sVPPSS+HVD_NP
p5374
I1
sVNN$_PP$
p5375
I176
sVNN-HL_IN-HL
p5376
I134
sVBER_DTS
p5377
I72
sVQL-HL_start
p5378
I1
sVBER_DTI
p5379
I9
sVDT_NP-TL
p5380
I2
sVNP-TL_NP-TL
p5381
I255
sVBEZ_NR
p5382
I25
sVHVZ_PPS
p5383
I430
sVBEZ_NP
p5384
I454
sVHV*_``
p5385
I2
sVBEDZ_RBT
p5386
I3
sVVBN_NN+HVZ-TL
p5387
I1
sVTO_NNS-TL
p5388
I20
sVBEN_PPSS
p5389
I12
sVIN_PPSS
p5390
I26
sVBEDZ_RBR
p5391
I5
sVBE_NN
p5392
I122
sVBE_NP
p5393
I12
sVNR-HL_NNS-HL
p5394
I1
sVTO-HL_AP-HL
p5395
I1
sVBEZ_NN
p5396
I3693
sVHVZ_PPO
p5397
I6
sVDT_VB
p5398
I542
sV''_FW-PP$-TL
p5399
I1
sVDO+PPSS_,
p5400
I1
sVPP$_JJ
p5401
I32
sVHVZ_NP-TL
p5402
I14
sVQL_EX+BEZ
p5403
I1
sVNNS-TL-HL_VBN-TL-HL
p5404
I6
sVJJ_RP
p5405
I90
sV''_HVN
p5406
I1
sVJJT_NP
p5407
I1
sVAP-HL_IN-HL
p5408
I4
sV,_NN$-TL
p5409
I3
sV''_HVD
p5410
I2
sVRBT_PPSS
p5411
I2
sVJJ_RB
p5412
I1507
sVJJT_NN
p5413
I1
sVFW-RB_FW-BEZ
p5414
I1
sVHV_CS
p5415
I2
sVEX_JJ
p5416
I6
sVVBZ_OD
p5417
I4
sVFW-NR_FW-JJ
p5418
I1
sVIN_--
p5419
I290
sVHV_CC
p5420
I67
sVHV_CD
p5421
I11
sVABX_NP-TL
p5422
I1
sVMD_WRB
p5423
I100
sVRB_PPSS+BER
p5424
I21
sVFW-CC_FW-IN+NN
p5425
I1
sV*_AP
p5426
I9
sVRB-TL_VBN
p5427
I1
sV)_FW-VBG
p5428
I1
sV*_AT
p5429
I4
sVRB_PPSS+BEM
p5430
I22
sVCC_QL
p5431
I29
sV._BEZ*
p5432
I2
sVQLP_JJ
p5433
I168
sVAT_PPO
p5434
I445
sVVBN_CD-TL
p5435
I1
sVEX_WRB
p5436
I47
sVJJS_NN$
p5437
I13
sVFW-OD-TL_IN
p5438
I1
sV(_MD
p5439
I6
sVHVD_JJR
p5440
I1
sVNNS-HL_VBN-HL
p5441
I10
sVBEDZ*_,
p5442
I5
sVJJR_PP$
p5443
I39
sVAT_DTS+BEZ
p5444
I1
sVNN$-TL_AT-TL
p5445
I12
sVPPLS_JJ
p5446
I2
sVFW-NN_FW-NN
p5447
I3
sVJJR_PPS
p5448
I2
sVNP-NC_VBN
p5449
I1
sVMD*_WPO
p5450
I1
sVRBR_WDT
p5451
I3
sVNP-NC_VBZ
p5452
I1
sVNN$_JJ
p5453
I84
sVBEM_JJ
p5454
I1
sVMD*_WPS
p5455
I9
sVAP+AP-NC_,
p5456
I1
sVJJR_PPO
p5457
I10
sVPPO_VBG
p5458
I666
sVIN_BE
p5459
I249
sVCD_RB
p5460
I684
sVCD_RP
p5461
I87
sV,_HVZ
p5462
I11
sVJJ_JJ-TL
p5463
I20
sV,_HVG
p5464
I1
sV,_HVD
p5465
I33
sV,_HVN
p5466
I2
sVNNS-HL_,-HL
p5467
I14
sVDT+MD_start
p5468
I1
sVNN-TL_AT-TL
p5469
I366
sVBED_NNS
p5470
I1197
sVTO_PPSS
p5471
I11
sV._NN$-TL
p5472
I1
sVBE_VB+PPO
p5473
I1
sV''_NN-NC
p5474
I35
sVFW-AT-TL_IN
p5475
I4
sVTO_PPS+BEZ
p5476
I1
sV,_FW-NP
p5477
I1
sV,_FW-NN
p5478
I42
sVVBG_DT
p5479
I57
sVFW-NN-TL_JJ
p5480
I4
sVIN-TL_NPS
p5481
I1
sVBED_PPO
p5482
I30
sVFW-JJ_FW-RB
p5483
I1
sVCD-TL_NP-TL
p5484
I61
sV:_VBG
p5485
I20
sV:_VBD
p5486
I153
sVPPS+MD_ABN
p5487
I1
sV:_VBN
p5488
I46
sVPPSS_PN
p5489
I37
sVJJ_FW-NN
p5490
I1
sVJJ-HL_BEZ-HL
p5491
I11
sV:_VBZ
p5492
I75
sVBED_PPS
p5493
I71
sVFW-NN_AT
p5494
I76
sVWRB_DOD
p5495
I5
sVWPS_NNS-TL
p5496
I17
sVTO_PP$$
p5497
I1
sVJJ-TL_WRB
p5498
I7
sVVBN-HL_IN-TL
p5499
I1
sVNNS-TL_NNS$-TL
p5500
I6
sVFW-PPO+IN_FW-VB
p5501
I3
sV)-HL_NP-HL
p5502
I82
sVABN_HV
p5503
I5
sVVBD_HV*
p5504
I1
sVVBZ_RB-NC
p5505
I2
sVVBG_RBR
p5506
I12
sVFW-NN-TL_FW-AT-TL
p5507
I20
sVBEZ-NC_VBZ
p5508
I1
sVFW-IN+AT-TL_NP
p5509
I1
sV*_PP$
p5510
I2
sVFW-NPS_VBG
p5511
I1
sVFW-NN-TL_BEZ
p5512
I1
sVVBD_HVN
p5513
I1
sVVBD_HVD
p5514
I2
sV*_PPS
p5515
I24
sVVBD_HVG
p5516
I1
sV*_PPO
p5517
I24
sVVBD_HVZ
p5518
I2
sVNN_FW-WDT
p5519
I1
sV,_--
p5520
I2
sVEX_start
p5521
I801
sVUH_MD
p5522
I1
sVPPSS+BEM_--
p5523
I1
sVOD_QL
p5524
I10
sV``_JJ-TL
p5525
I3
sVRB_NP+BEZ
p5526
I5
sVBER*_WRB
p5527
I2
sVHVZ_)
p5528
I24
sVFW-RB_FW-NNS
p5529
I2
sV(_CD-TL
p5530
I23
sVDTS_,
p5531
I102
sVBEZ*_start
p5532
I6
sVQL_AP
p5533
I32
sVRP_RBR
p5534
I30
sVQL_AT
p5535
I1377
sVVBD_EX
p5536
I28
sVJJS_WP$
p5537
I2
sVRBR_BEDZ
p5538
I13
sVVB-TL_VBN
p5539
I1
sVVB-TL_VBD
p5540
I2
sVNR$-TL_(
p5541
I1
sVDT_NN-TL
p5542
I8
sVVB_NP
p5543
I181
sV*_WRB
p5544
I40
sVVB_NR
p5545
I4
sVVB_NN
p5546
I602
sVNN-TL_VBZ-TL
p5547
I1
sVRB-TL_CC-TL
p5548
I3
sVMD_PP$$
p5549
I7
sVVB+VB-NC_,
p5550
I1
sVNP-TL_FW-JJ-TL
p5551
I1
sV''_ABN
p5552
I17
sV''_ABL
p5553
I1
sVNN_''
p5554
I231
sVRB_DO*
p5555
I9
sVNP-TL-HL_AT-HL
p5556
I2
sVNP-NC_VB-NC
p5557
I1
sV''_ABX
p5558
I3
sVFW-IN_NN
p5559
I5
sVBEDZ_OD
p5560
I4
sVHV_OD
p5561
I1
sVNR_BE
p5562
I5
sVDTS_HV
p5563
I8
sV``_IN
p5564
I401
sVPPSS+HVD_--
p5565
I2
sVFW-IN_NP
p5566
I1
sVFW-IN_NR
p5567
I1
sVJJS_BEDZ
p5568
I2
sVPPSS_NN-TL
p5569
I16
sVAP_NR-TL
p5570
I1
sVFW-NN-TL-NC_AT
p5571
I1
sV._VBZ-NC
p5572
I1
sVWPS_FW-NNS
p5573
I3
sV--_BE
p5574
I3
sVRB_DOZ
p5575
I10
sVBEDZ_PPL
p5576
I19
sVVB-NC_,
p5577
I1
sVVB_DO*
p5578
I387
sVCS_--
p5579
I171
sVFW-VB_``
p5580
I3
sVRB_DOD
p5581
I29
sVDT_PPSS+BER
p5582
I1
sVNNS-TL_PPO
p5583
I1
sVFW-IN+NN_FW-NNS
p5584
I1
sV,_WPO
p5585
I8
sVNP$_PPS+BEZ
p5586
I2
sV,_WPS
p5587
I72
sVNP-TL_DT
p5588
I5
sVNP-TL_FW-IN+AT-TL
p5589
I4
sVJJ_IN
p5590
I8030
sVVBZ_DO
p5591
I1
sV``_PPLS
p5592
I2
sVRB-NC_WRB
p5593
I1
sVVBD_NN-TL
p5594
I402
sVVBZ_DT
p5595
I195
sV:_)
p5596
I10
sVBEZ*_UH
p5597
I1
sV(_FW-JJ-TL
p5598
I2
sVCC_BER
p5599
I13
sVCC_BEZ
p5600
I26
sVCC_BED
p5601
I7
sVFW-IN+AT-TL_FW-NNS-TL
p5602
I2
sVCC_BEG
p5603
I4
sVDO_JJ
p5604
I2
sVCC_BEM
p5605
I1
sVCC_BEN
p5606
I7
sVNP-NC_IN
p5607
I4
sVCD_PPL
p5608
I4
sVWDT_FW-NN
p5609
I2
sVBEDZ_PP$
p5610
I1
sVVBZ-TL_NP-TL
p5611
I5
sVPPSS+BEM_WRB
p5612
I4
sVDTX_VB
p5613
I3
sVNPS_CC-TL
p5614
I1
sVWPS-TL_DO-TL
p5615
I1
sVWPS-TL_NNS-TL
p5616
I1
sVBED*_NN
p5617
I1
sVPPS_NR-TL
p5618
I2
sVNPS-HL_VBZ-HL
p5619
I1
sVUH_BEDZ
p5620
I1
sVPN-TL_IN
p5621
I2
sVFW-WPO_FW-IN
p5622
I1
sVRP_PPLS
p5623
I2
sVPPSS+HVD_VBD
p5624
I1
sVPPSS+HVD_VBG
p5625
I1
sVRP+IN_NPS
p5626
I1
sVPPSS+HVD_VBN
p5627
I1
sV''_DOD*
p5628
I1
sVNR-TL_VBZ-TL
p5629
I1
sV''_MD
p5630
I11
sVABL_HVD
p5631
I2
sVIN_RBR
p5632
I160
sVFW-AT+NN-TL_FW-IN-TL
p5633
I5
sVABL_HVN
p5634
I1
sVIN_RBT
p5635
I21
sV(_BEDZ
p5636
I5
sVABL_HVZ
p5637
I3
sVQL-TL_``
p5638
I3
sVABX_--
p5639
I5
sV._FW-UH
p5640
I1
sVHVZ_FW-WDT
p5641
I1
sVBE_RBR
p5642
I11
sVBE_RBT
p5643
I2
sVPN$_HV
p5644
I3
sVNN-HL_WDT-HL
p5645
I5
sVRB_AT
p5646
I350
sVAT_)-HL
p5647
I1
sVRB_AP
p5648
I70
sVJJR_PPSS
p5649
I1
sVDOD*_EX
p5650
I1
sVRB-TL_VB-TL
p5651
I7
sVNN-HL_NP-HL
p5652
I15
sV'_RB-NC
p5653
I1
sVBED-NC_WPS-NC
p5654
I1
sVCS_WPS
p5655
I5
sVCC-HL_NP-HL
p5656
I7
sVVBN-HL_WRB-HL
p5657
I1
sV.-HL_.-HL
p5658
I32
sVPPL_PPSS
p5659
I10
sVEX+BEZ_``
p5660
I20
sV,_NNS$-TL
p5661
I1
sVCC-NC_,-NC
p5662
I2
sVPPSS+BER_JJ
p5663
I2
sVPP$-NC_RB+BEZ-NC
p5664
I1
sVDTI_CC
p5665
I123
sV,_FW-UH
p5666
I4
sVWQL_BEDZ
p5667
I1
sVDTI_CD
p5668
I3
sVNP-HL_JJ-TL-HL
p5669
I4
sVFW-JJ_CS
p5670
I1
sVDTI_CS
p5671
I225
sVMD_``
p5672
I49
sVCC-HL_VBN-HL
p5673
I1
sV,_HV-NC
p5674
I1
sVDT_PN
p5675
I8
sVNN-NC_JJ
p5676
I1
sVNN-HL_VBD-HL
p5677
I2
sVNN-HL_NP-TL-HL
p5678
I1
sVQLP_NNS
p5679
I1
sVRP_''
p5680
I2
sVNPS_CD-TL
p5681
I3
sVFW-AT+NP-TL_``
p5682
I2
sVCC-TL-HL_NN-TL-HL
p5683
I1
sVCS-HL_NP-HL
p5684
I1
sVPP$_VBD
p5685
I1224
sVRBR_VB
p5686
I57
sVIN_NN$
p5687
I1
sVJJ_TO
p5688
I5
sVPPS+BEZ_WDT
p5689
I6
sVIN-HL_NR-HL
p5690
I1
sVPPS-TL_WPO-TL
p5691
I1
sV._FW-RB
p5692
I3
sVHV_AP
p5693
I6
sVEX_)
p5694
I4
sVIN_NNS
p5695
I14504
sVVBZ_''
p5696
I60
sVFW-CS_FW-JJ
p5697
I1
sV._CD-TL
p5698
I159
sVMD_WPO
p5699
I11
sVPPSS+MD-NC_IN
p5700
I1
sVCD-TL_AT
p5701
I29
sVTO_NN-TL
p5702
I83
sVMD_WPS
p5703
I403
sVHVG_ABX
p5704
I1
sVNNS$_PPO
p5705
I1
sVJJR_VB
p5706
I67
sVAT_HVN
p5707
I78
sVQL-HL_CC-HL
p5708
I1
sVAT_HVG
p5709
I66
sVAT_HVD
p5710
I441
sVFW-PPSS_'
p5711
I1
sVAT_HVZ
p5712
I226
sVFW-PPSS_:
p5713
I1
sVAT-HL_JJ-HL
p5714
I1
sV'_JJR
p5715
I1
sVEX_WPO
p5716
I1
sVCC_FW-AT+NN-TL
p5717
I1
sVJJT-TL_AT
p5718
I3
sV``_HVZ
p5719
I5
sVVBN-TL_AT-TL
p5720
I43
sVNNS_NN-TL
p5721
I283
sVNR-TL_,
p5722
I2
sVJJ-HL_DTI-HL
p5723
I1
sVNR-TL_)
p5724
I2
sVNR-TL_(
p5725
I1
sV._NN-HL
p5726
I7
sV``_HVG
p5727
I3
sVDTS+BEZ_``
p5728
I1
sVBER_NNS-TL
p5729
I27
sVNPS$_NN$
p5730
I1
sVPPLS_HV
p5731
I1
sVVBG-HL_RB-HL
p5732
I3
sV''_HVZ*
p5733
I1
sVPPS_HVD
p5734
I37
sVNNS-TL_JJS-TL
p5735
I2
sVPPS_HVZ
p5736
I4
sVNN-TL-HL_JJ-TL-HL
p5737
I14
sVNNS$-HL_start
p5738
I4
sVAT_HV*
p5739
I3
sVHVZ_NN
p5740
I754
sVPPO_RP+IN
p5741
I1
sVIN_DO
p5742
I131
sVVBN_TO
p5743
I1
sVPPS+BEZ_RB
p5744
I13
sVDOD*_start
p5745
I6
sVHVZ_NR
p5746
I1
sVHVZ_NP
p5747
I272
sVNPS_BEG
p5748
I1
sVNPS_BED
p5749
I6
sV'_PPO
p5750
I4
sVRBT_VB
p5751
I11
sV._FW-AT+NN-TL
p5752
I1
sVNPS_BER
p5753
I4
sVVBN_BEZ-NC
p5754
I1
sVNRS_CD
p5755
I1
sVBEZ*_WDT
p5756
I1
sVNRS_CC
p5757
I2
sVJJ-NC_HV-NC
p5758
I1
sVBE_JJR
p5759
I6
sVNP_DOD*
p5760
I1
sVDOZ_RB
p5761
I22
sVCC_WDT
p5762
I3
sVWPO_NPS
p5763
I1
sVNP_IN
p5764
I6613
sVVBG_WDT+BEZ
p5765
I7
sVTO_BEDZ
p5766
I188
sVPPS-TL_,
p5767
I1
sVNP$_DT+BEZ
p5768
I1
sVJJ-NC_PPS+BEZ-NC
p5769
I1
sVVBG_BE
p5770
I205
sVNN-HL_PP$-HL
p5771
I5
sVNN-HL_VBN-HL
p5772
I21
sVABN_PN
p5773
I2
sVPPS_BEZ*
p5774
I22
sVQL_PPSS+BEM
p5775
I16
sV'_PP$
p5776
I2
sVQLP_JJR
p5777
I1
sVHVZ-TL_NN-TL
p5778
I3
sVPPSS_VB
p5779
I234
sVNN-TL_NN
p5780
I75
sV._WRB-NC
p5781
I1
sVPN_DO
p5782
I54
sVJJ-TL_DTS
p5783
I5
sVCD_CD$
p5784
I1
sVPN_DT
p5785
I22
sVABN_,
p5786
I141
sVJJ-TL_DTI
p5787
I6
sVNIL_''
p5788
I1
sVBE-HL_PPS-HL
p5789
I1
sVNN-TL_NR
p5790
I4
sVNN-TL_NP
p5791
I143
sVPPS+HVD_RB
p5792
I1
sVBEN_HVZ
p5793
I567
sVHV_PPSS+MD
p5794
I53
sVJJ_BEDZ*
p5795
I17
sVMD*_PPS
p5796
I180
sVCC_VBZ
p5797
I99
sVPN+HVZ_``
p5798
I1
sVNN-HL_VB-HL
p5799
I14
sVCC_VBD
p5800
I380
sVCC_VBG
p5801
I468
sV._VBG-TL
p5802
I1
sVMD*_PPL
p5803
I2
sVMD*_PPO
p5804
I3
sVBEN_HVG
p5805
I21
sVNP+BEZ_CS
p5806
I1
sVCC_VBN
p5807
I916
sV''_PPSS+VB
p5808
I1
sVBEZ_:
p5809
I5
sVBEN_HV*
p5810
I2
sVDTI_''
p5811
I2
sVVBN-NC_BED-NC
p5812
I1
sVABN_NNS
p5813
I39
sVAP_BEDZ*
p5814
I2
sV'_NP$-HL
p5815
I1
sVNPS-TL_FW-AT-TL
p5816
I2
sVCC_:
p5817
I11
sV)_FW-NNS-TL
p5818
I3
sVABL_DO
p5819
I1
sVNR$-TL_AT
p5820
I8
sV,_NNS-TL
p5821
I381
sVFW-NN_FW-PPSS+HV
p5822
I1
sVAT_NPS-NC
p5823
I1
sVVBN_NP-TL
p5824
I5
sVBER*_WPS
p5825
I1
sVNN_PN
p5826
I4
sVDOD_NNS-TL
p5827
I5
sVRB_HV*
p5828
I3
sVAP-HL_CC-HL
p5829
I2
sV,_MD*
p5830
I10
sVABN-HL_start
p5831
I2
sVPPS_NNS-NC
p5832
I1
sVMD*_NNS
p5833
I27
sVAT-HL_RB-HL
p5834
I1
sVNNS$_BEDZ
p5835
I1
sVQL_OD
p5836
I6
sVFW-JJ_FW-DT+BEZ
p5837
I2
sVVBG_VBN-TL
p5838
I1
sVNN_EX
p5839
I4
sVVBD_PPSS+HVD
p5840
I1
sVEX_NN-TL
p5841
I5
sVVBN_PPS+HVD
p5842
I51
sV--_NPS-TL
p5843
I4
sVVBN_PPS+HVZ
p5844
I25
sVAT-NC_BED-NC
p5845
I1
sVFW-VBG_FW-NP
p5846
I1
sVMD-HL_start
p5847
I3
sVCD-NC_VB-NC
p5848
I2
sVFW-NNS_JJT
p5849
I1
sVRB_HVZ
p5850
I223
sVWP$_NN
p5851
I66
sVIN-TL_NN-TL
p5852
I1189
sVHVZ_--
p5853
I9
sVPPL_NNS
p5854
I5
sVNNS_``
p5855
I225
sVRB_HVN
p5856
I4
sVWP$_NP
p5857
I5
sVRB_HVD
p5858
I400
sVRB_HVG
p5859
I8
sV)_BE
p5860
I1
sVFW-CD_FW-*
p5861
I1
sVTO_IN
p5862
I22
sVAT-TL-HL_(-HL
p5863
I3
sVDTS_NN
p5864
I30
sVFW-PPSS+HV_``
p5865
I1
sVBER_VBG-TL
p5866
I1
sVJJR_PPSS+BER
p5867
I3
sVCD-TL-HL_NN-TL-HL
p5868
I15
sVDTS_NR
p5869
I2
sVFW-UH-NC_``
p5870
I1
sVDTS_NP
p5871
I1
sVBEDZ_AP
p5872
I12
sVNP$-TL_IN
p5873
I39
sVHV_DO*
p5874
I22
sVNNS-TL-HL_start
p5875
I1
sVNN_RB-TL
p5876
I1
sVRBT_PPSS+HVD
p5877
I1
sVABN_JJS
p5878
I1
sVABN_JJR
p5879
I2
sVBEZ_ABN
p5880
I9
sVBEZ_ABL
p5881
I2
sVFW-NN-NC_``
p5882
I2
sVBEZ_QL
p5883
I1
sV,_BEZ-TL
p5884
I2
sVPPSS-TL_VB
p5885
I1
sVAP_NNS
p5886
I59
sVWRB_DO
p5887
I4
sVNN_FW-DT
p5888
I1
sV,_FW-NN$
p5889
I1
sVWRB_DT
p5890
I4
sVRP_PP$
p5891
I1
sVVBN_``
p5892
I110
sV--_ABN
p5893
I10
sVBEDZ_start
p5894
I32
sVVBZ_JJ
p5895
I23
sVWPS+MD_--
p5896
I1
sVABN_PPSS
p5897
I61
sVNP-TL_VB-TL
p5898
I5
sV--_ABX
p5899
I1
sVTO-HL_HVD-HL
p5900
I1
sVNN-TL_PPO
p5901
I6
sV:_''
p5902
I11
sVABN_NNS+MD
p5903
I1
sVWDT_ABN
p5904
I3
sVFW-NNS-TL_IN
p5905
I1
sVRB_FW-NN
p5906
I3
sVWDT_RBR
p5907
I1
sV''_FW-VB
p5908
I4
sV,_FW-NNS
p5909
I20
sVRP_PPS
p5910
I1
sVFW-*-TL_FW-CC-TL
p5911
I1
sVFW-JJ-TL_FW-JJ-TL
p5912
I2
sVRP_PPL
p5913
I29
sVRP_PPO
p5914
I348
sV)_NN$-TL
p5915
I2
sVNNS-TL_DO-TL
p5916
I1
sVWRB+BEZ-TL_``
p5917
I3
sVNN-TL_NR$
p5918
I2
sVVBG-HL_NNS-HL
p5919
I3
sVDT_PPO
p5920
I58
sV.-TL_.-TL
p5921
I1
sVNNS_*
p5922
I31
sVNP-NC_BEZ
p5923
I2
sVBEZ_PP$$
p5924
I5
sVFW-NNS-TL_FW-AT-TL
p5925
I2
sV,_FW-VBZ
p5926
I2
sVNNS_(
p5927
I44
sVFW-NP-TL_FW-JJ-TL
p5928
I1
sVWQL_CC
p5929
I12
sVCD-HL_AT-HL
p5930
I2
sVCD_IN
p5931
I4047
sV''_CD
p5932
I70
sVCD_NNS$-TL
p5933
I2
sV''_CC
p5934
I15
sVJJ_RB-NC
p5935
I1
sVWDT+BEZ_start
p5936
I14
sVEX+MD_start
p5937
I1
sVNNS_EX
p5938
I2
sVQL_NP$-TL
p5939
I1
sVIN_CD-TL
p5940
I50
sVBEDZ_ABL
p5941
I1
sV''_CS
p5942
I10
sVDT_RB
p5943
I184
sVRB_CS
p5944
I398
sVVBG-HL_DTS-HL
p5945
I1
sVNN-NC_CD-NC
p5946
I4
sVDT_RP
p5947
I46
sVRBT_WDT
p5948
I2
sVRB_CC
p5949
I2438
sVNN-HL_---HL
p5950
I4
sVRB_CD
p5951
I233
sVBED_PN
p5952
I4
sVVB-HL_JJR-HL
p5953
I1
sVVBG-NC_PPSS-NC
p5954
I1
sVQL_BEZ
p5955
I544
sVRP_JJ
p5956
I13
sVQL_BER
p5957
I256
sVQL_BEM
p5958
I15
sVQL_BEN
p5959
I90
sVQL_BED
p5960
I133
sVQL_BEG
p5961
I25
sVCS_WRB
p5962
I3
sVHVZ-NC_PPS-NC
p5963
I1
sVRP-TL_VB-TL
p5964
I3
sVFW-JJ_AP
p5965
I1
sVVBN-TL_JJS
p5966
I1
sV._DOZ*
p5967
I1
sV,_PN$
p5968
I1
sVDTI_MD
p5969
I7
sVBE_''
p5970
I1
sVRB_MD
p5971
I1039
sV._PPL-TL
p5972
I1
sV)_VB-NC
p5973
I1
sVBE_RP
p5974
I1
sVFW-NN-NC_CC
p5975
I1
sVNP+MD_``
p5976
I1
sVFW-VB_AT
p5977
I2
sVBE_RB
p5978
I372
sVFW-NN-NC_CS
p5979
I1
sVCS-HL_start
p5980
I7
sVWDT+DOD_``
p5981
I1
sVIN_BEZ-NC
p5982
I1
sV)_RBR
p5983
I1
sVPPO_WRB
p5984
I1
sVJJR_TO
p5985
I2
sVNP_FW-IN-TL
p5986
I2
sV.-HL_NN-TL-HL
p5987
I7
sVBEDZ*_RB
p5988
I4
sVCC_UH
p5989
I1
sVBED_NNS-TL
p5990
I35
sVNPS_VBZ
p5991
I2
sVFW-VB_FW-NP
p5992
I2
sVPPS+MD_CC
p5993
I13
sVRBR_TO
p5994
I3
sVHVG_PP$
p5995
I7
sVPP$_NN
p5996
I118
sVJJT_JJ
p5997
I5
sVPPSS-NC_VB-NC
p5998
I1
sVPP$_NP
p5999
I25
sVBEZ_HVZ
p6000
I1
sVBE-HL_MD-HL
p6001
I4
sVNNS_RB$
p6002
I2
sVJJ_VB
p6003
I1303
sVFW-VB_FW-NN
p6004
I2
sVHVG_PPO
p6005
I3
sVNN-NC_VB-NC
p6006
I1
sVHVG_PPL
p6007
I2
sVWPS_VBG
p6008
I3
sVWPS_VBD
p6009
I8
sVWPS_VBN
p6010
I8
sVNNS_RBR
p6011
I5
sVMD-HL_PPSS-HL
p6012
I2
sVWPS_VBZ
p6013
I2
sVNNS$-TL_VB
p6014
I1
sVNNS_ABN
p6015
I424
sVNNS_ABL
p6016
I1
sV:_BE
p6017
I3
sVNNS_ABX
p6018
I185
sVFW-NNS_--
p6019
I1
sVBEDZ_DOD
p6020
I6
sVPPS_NRS
p6021
I1
sV)_DTI
p6022
I1
sVFW-NN_FW-IN+AT
p6023
I1
sVVBG-NC_IN-NC
p6024
I4
sVVB_''
p6025
I15
sVBEZ_NP$
p6026
I3
sVNPS$_NN-TL
p6027
I1
sVCD_NN$
p6028
I11
sVQLP_NN
p6029
I3
sVPPSS_WRB+BER
p6030
I1
sVVB_MD
p6031
I5129
sV,_FW-NN$-TL
p6032
I1
sVDT-NC_VB-NC
p6033
I1
sVJJR_PPS+BEZ
p6034
I8
sV(_IN
p6035
I34
sVOD_(
p6036
I3
sVOD_,
p6037
I22
sVDO*_--
p6038
I1
sVOD_:
p6039
I1
sVNN-HL_JJ-TL-HL
p6040
I1
sV``_NPS$
p6041
I1
sVBED_VBN
p6042
I19
sVDTS_QL
p6043
I2
sVBED_VBG
p6044
I5
sVNR-TL_NN-TL
p6045
I4
sVBED_VBD
p6046
I8
sVBEM_NN
p6047
I1
sVJJ-TL_ABX
p6048
I5
sVVBN_RP
p6049
I7
sV''_OD-TL
p6050
I1
sVJJ-TL_ABN
p6051
I7
sVNR-TL_VBN
p6052
I3
sVPN-HL_start
p6053
I1
sVVBZ_FW-NNS-TL
p6054
I1
sVTO_RB
p6055
I547
sVPP$-TL_,
p6056
I3
sVHV_CD-TL
p6057
I1
sVWPO_NN-TL
p6058
I2
sVTO_RP
p6059
I168
sVJJ-HL_VBZ-HL
p6060
I3
sVVBN-TL_BEDZ
p6061
I1
sVIN_BEN
p6062
I162
sVIN_BEM
p6063
I6
sVPP$$_BE
p6064
I1
sVIN_BEG
p6065
I40
sV'_FW-PN
p6066
I1
sVNN-TL_NPS-TL
p6067
I3
sVIN_BED
p6068
I154
sVVB-HL_CD-TL-HL
p6069
I1
sVDOZ_PN
p6070
I10
sVIN_BEZ
p6071
I425
sVHVZ-NC_NN
p6072
I1
sVNRS_AP
p6073
I1
sVIN_BER
p6074
I214
sVFW-NN_PP$
p6075
I9
sVAT-TL_PPO-TL
p6076
I1
sVFW-*_``
p6077
I2
sVNP_OD
p6078
I20
sVPPSS+VB_,
p6079
I2
sVDOD_--
p6080
I2
sVABN_RB
p6081
I98
sVNR_CD-TL
p6082
I1
sVNPS_PPSS+BER
p6083
I4
sVNN-HL_OD-HL
p6084
I5
sV._UH
p6085
I71
sVCD_start
p6086
I727
sVIN-NC_NNS-NC
p6087
I2
sVVB_JJ-TL
p6088
I1
sVABL_*
p6089
I4
sVCS_UH
p6090
I3
sVNN-HL_JJT-HL
p6091
I3
sVFW-JJ_FW-VB
p6092
I1
sVABL_,
p6093
I14
sVTO_BEZ
p6094
I246
sVPN_BE
p6095
I20
sVTO_BER
p6096
I52
sVNN-TL_HV
p6097
I1
sVTO_BEM
p6098
I2
sVTO_BEN
p6099
I7
sVTO_BED
p6100
I73
sVWDT+BEZ_VB
p6101
I1
sVNP_DTS
p6102
I5
sVDTS_PPL
p6103
I1
sVFW-CS_,
p6104
I1
sVNP_DTX
p6105
I1
sVJJ_PPS+BEZ
p6106
I70
sVAP-TL_NP$-TL
p6107
I1
sVNN$_NNS
p6108
I1
sVNP-TL_DTI-TL
p6109
I1
sVNP_DTI
p6110
I10
sVHVD_PPS
p6111
I1330
sV._NNS-HL
p6112
I2
sVMD_PPS
p6113
I2029
sV``_ABN
p6114
I5
sVMD-HL_,-HL
p6115
I1
sVCD_JJS
p6116
I4
sVJJ-TL_VB
p6117
I29
sVPP$_BEDZ*
p6118
I3
sVCD_JJT
p6119
I4
sVPP$_--
p6120
I47
sVMD_PPL
p6121
I22
sVMD_PPO
p6122
I70
sV``_ABX
p6123
I2
sVVBG-NC_``
p6124
I1
sVFW-NP_,
p6125
I1
sVHVD_PPO
p6126
I18
sVNP_FW-AT-TL
p6127
I1
sVFW-JJ_FW-BEZ
p6128
I1
sVNPS_FW-VB
p6129
I1
sVWPO_VB
p6130
I1
sVVBZ_NN
p6131
I2007
sVNN-HL_CC-HL
p6132
I49
sVUH_IN
p6133
I4
sVBEG_VBN
p6134
I3
sVWPS_JJR
p6135
I1
sVBEG_VBD
p6136
I7
sVNP-HL_``
p6137
I4
sVBEG_VBG
p6138
I2
sVQL_RBR
p6139
I2
sVPPS+HVD_,
p6140
I12
sVHV_start
p6141
I36
sVNN_RB
p6142
I326
sVPP$-TL_IN
p6143
I8
sVPPO_ABX
p6144
I1
sVQL_ABN
p6145
I15
sV._VBN-TL
p6146
I5
sVNN_RP
p6147
I68
sVQL_ABX
p6148
I5
sVPPO_ABN
p6149
I1
sVWRB+BEZ_``
p6150
I8
sVNPS-TL_AT
p6151
I2
sVDTI_BEDZ
p6152
I15
sVPP$-TL_PPO-TL
p6153
I1
sVMD_NNS
p6154
I1260
sV--_FW-JJ-TL
p6155
I1
sV:_RBT
p6156
I1
sV:_RBR
p6157
I2
sVEX_NNS-TL
p6158
I3
sVAT_''
p6159
I43
sVPP$-HL_CC-HL
p6160
I2
sVNP+HVZ_``
p6161
I1
sVRBT_WRB
p6162
I1
sVVBG-HL_JJ-HL
p6163
I9
sVNNS$_VB
p6164
I7
sVVBG_VBN
p6165
I114
sVVBG_VBD
p6166
I263
sVVBG_VBG
p6167
I41
sVVBG_VBZ
p6168
I44
sVDO_VBN+TO
p6169
I1
sVTO_OD
p6170
I18
sVMD*_start
p6171
I15
sVABX_PP$
p6172
I1
sVDTX_CC
p6173
I6
sVCD-HL_ABN-HL
p6174
I1
sVPPS+HVZ_--
p6175
I2
sVBEDZ_CS
p6176
I24
sVFW-OD-TL_FW-CC-TL
p6177
I1
sVBEDZ_CD
p6178
I52
sVBEDZ_CC
p6179
I184
sVVB_JJR
p6180
I6
sVFW-IN_RB
p6181
I2
sVQL_MD
p6182
I46
sVPPS+HVD_WDT
p6183
I4
sVHVG_NPS
p6184
I1
sV._VB-TL
p6185
I1
sVRB_JJT
p6186
I5
sVRB_JJR
p6187
I16
sVVB-NC_IN
p6188
I8
sVVBN_PPS+BEZ
p6189
I14
sVABX_PPS
p6190
I1
sVABX_PPL
p6191
I1
sVABX_PPO
p6192
I13
sVJJS-TL_AT
p6193
I2
sVJJS-TL_AP
p6194
I1
sVBEDZ-HL_NN-HL
p6195
I1
sVJJ_,
p6196
I2468
sVNN+IN_AT
p6197
I1
sVNP-TL_NN$
p6198
I1
sVDTI_NPS
p6199
I1
sVRP_VBZ
p6200
I194
sVRP_VBD
p6201
I1482
sVRP_VBG
p6202
I565
sVJJ-NC_CC
p6203
I3
sVWRB_BE
p6204
I4
sVNNS-TL-HL_NN-TL-HL
p6205
I1
sVRP_VBN
p6206
I914
sVJJT_QL
p6207
I7
sV._FW-NR-TL
p6208
I1
sV--_JJR
p6209
I7
sVJJ_MD
p6210
I12
sVHVZ_WRB
p6211
I1
sVRB_MD*
p6212
I36
sVPPO_,
p6213
I1
sVVBN_:
p6214
I8
sVNN+BEZ_PP$
p6215
I6
sVNR_NN
p6216
I164
sVVB_NP+MD
p6217
I1
sVJJ_BEG
p6218
I68
sVNR_NP
p6219
I32
sV``_EX
p6220
I1
sVNR_NR
p6221
I4
sVBEZ*_PPO
p6222
I1
sVJJ_BEZ
p6223
I1268
sVOD-TL_:
p6224
I1
sVCS_DO
p6225
I18
sVBEDZ_DTX
p6226
I2
sVDO_NP
p6227
I5
sVDO_NR
p6228
I1
sVCS_DT
p6229
I26
sVNP-TL_NNS
p6230
I2
sV)_,
p6231
I5
sV)_*
p6232
I2
sVAP_EX+BEZ
p6233
I5
sV)_(
p6234
I1
sV)_'
p6235
I2
sVNN-TL_NPS
p6236
I4
sVFW-NNS_(
p6237
I1
sVIN_BEDZ
p6238
I472
sVIN_start
p6239
I4792
sVPPS_'
p6240
I1
sVIN-HL_RB
p6241
I1
sV(_TO
p6242
I1
sVFW-NN-NC_NP
p6243
I1
sV--_DOD
p6244
I2
sV--_DOZ
p6245
I1
sVVBN_--
p6246
I46
sV''_VBG-HL
p6247
I1
sVPPO-TL_JJ-TL
p6248
I1
sVVBN_,
p6249
I1047
sVOD-NC_NN-NC
p6250
I1
sVNR_PPS+BEZ
p6251
I1
sVWPS_--
p6252
I17
sVNNS_CC
p6253
I2024
sVBER_RB
p6254
I66
sVNNS_CD
p6255
I3527
sVNN-TL_NP$
p6256
I83
sVNN-TL-HL_PP$-HL
p6257
I1
sVNNS_CS
p6258
I603
sV''_AP
p6259
I33
sV''_AT
p6260
I7
sVDT_DT+BEZ
p6261
I2
sVQL_BEZ*
p6262
I8
sVABX_PPSS+MD
p6263
I1
sVFW-AT_FW-HV
p6264
I1
sVIN-TL_``
p6265
I12
sVIN_MD*
p6266
I6
sVDT-TL_IN-TL
p6267
I2
sVBED_RB
p6268
I53
sVCC-TL_NP-TL
p6269
I104
sVHV_*
p6270
I94
sVHV_)
p6271
I9
sVRB_WPS+BEZ
p6272
I2
sVHV_,
p6273
I106
sVBED_RP
p6274
I1
sVRB_EX
p6275
I25
sVRP_HV
p6276
I2
sVEX_JJ-TL
p6277
I1
sVPPSS_HVD*
p6278
I1
sVABN-HL_CS-HL
p6279
I1
sVNP_RB
p6280
I264
sVPN_BEG
p6281
I1
sVJJ-HL_VBG-HL
p6282
I5
sVPN_BEM
p6283
I2
sVPN_BEN
p6284
I7
sVPN_BER
p6285
I6
sVNP_RP
p6286
I28
sVFW-PPS_``
p6287
I1
sVPN_BEZ
p6288
I68
sVVBZ-HL_NN-TL
p6289
I1
sVPPL_JJ
p6290
I6
sVFW-JJ-TL_FW-AT-TL
p6291
I9
sVTO_start
p6292
I230
sVABX_JJ
p6293
I5
sVNNS-TL_NP$
p6294
I9
sVBE_PN
p6295
I1
sVIN_NNS$
p6296
I1
sVFW-AT-TL_start
p6297
I2
sVJJR_RB
p6298
I44
sVVBN_BEDZ*
p6299
I14
sVCD_BEDZ
p6300
I176
sVJJR_RP
p6301
I1
sVRB_WRB
p6302
I57
sVAT-TL_NP-TL
p6303
I26
sVNN-TL_WPO
p6304
I3
sVRBR_RB
p6305
I61
sVFW-NN_FW-BEZ
p6306
I1
sVBEZ_CS
p6307
I30
sV''_WPS
p6308
I2
sVFW-VB-NC_FW-VB
p6309
I1
sVNPS$-HL_:-HL
p6310
I1
sVRBR_RP
p6311
I11
sVRB_DT+BEZ
p6312
I4
sVCS_NN-NC
p6313
I2
sVPPSS+BER_NN
p6314
I9
sVRBR_DTI
p6315
I24
sVOD-HL_AT-HL
p6316
I1
sVNN$-TL_PP$-TL
p6317
I1
sVEX_DT
p6318
I2
sVCS-NC_NN-NC
p6319
I1
sV._FW-VB
p6320
I1
sVPP$_BEDZ
p6321
I114
sVRBR_DTS
p6322
I1
sVPPSS+BER_NP
p6323
I2
sVHVZ_PP$$
p6324
I2
sVNN-TL_JJS-TL
p6325
I17
sV,_AP
p6326
I198
sVBEN_NN+HVZ
p6327
I1
sVIN_ABN
p6328
I422
sVPN+MD_start
p6329
I1
sVDTX_BER
p6330
I2
sVPPSS+MD_IN
p6331
I1
sVHVG_NN-TL
p6332
I1
sVTO-HL_VB-HL
p6333
I2
sVIN_ABX
p6334
I95
sVBE_CS
p6335
I1
sVFW-CC_FW-RB
p6336
I3
sVAP_BE
p6337
I39
sVNNS_PPLS
p6338
I2
sVDT_MD
p6339
I15
sV--_FW-NN-TL
p6340
I2
sVRB-HL_VBN-HL
p6341
I1
sVJJ_---HL
p6342
I1
sVJJS_``
p6343
I1
sVFW-CD_FW-BER
p6344
I1
sVAT-NC_ABN-NC
p6345
I1
sVCC-HL_RB-HL
p6346
I3
sV:_VBZ-NC
p6347
I1
sVNN+MD_AT
p6348
I2
sVJJ-HL_RB-HL
p6349
I2
sV)_NR-TL
p6350
I3
sVWRB_FW-JJ-TL
p6351
I1
sVVBN-HL_NN-HL
p6352
I35
sVVBN_PN
p6353
I35
sVPPS+HVZ_WRB
p6354
I1
sV._BEDZ
p6355
I44
sVIN_HV
p6356
I55
sV._FW-WDT
p6357
I1
sVRB-TL_(
p6358
I1
sVHVZ_JJ
p6359
I13
sVDO_WRB
p6360
I31
sVBEDZ_WDT
p6361
I231
sVNN-TL_NP-TL
p6362
I1506
sVTO_PN
p6363
I83
sVNP_NP$-TL
p6364
I2
sVNNS-TL-HL_NP-TL
p6365
I5
sVRBT_RB
p6366
I3
sVRP_start
p6367
I38
sVJJ-TL_BE
p6368
I2
sVFW-JJ-TL_NNS-TL
p6369
I1
sVDT-NC_WDT-NC
p6370
I1
sVJJ_FW-DT
p6371
I1
sVRB_``
p6372
I476
sVDOZ-HL_NN-HL
p6373
I1
sV(_NIL
p6374
I1
sV''_VBZ-TL
p6375
I3
sVIN-TL_CD
p6376
I2
sV)_NP-NC
p6377
I1
sVFW-NNS-TL_CD-TL
p6378
I1
sVCD-HL_(-HL
p6379
I54
sVABN_BEDZ
p6380
I40
sVNPS_HVG
p6381
I1
sVNP_MD
p6382
I12
sVNNS-HL_DTS-HL
p6383
I1
sVVBN-NC_PPSS-NC
p6384
I1
sV,_FW-IN+NN
p6385
I1
sVVBN-TL_PPSS+HV-TL
p6386
I1
sVVBD-HL_start
p6387
I3
sVFW-PPO_FW-IN+AT
p6388
I1
sVBEZ_--
p6389
I20
sVFW-NNS_VBN
p6390
I1
sVNP+BEZ-NC_start
p6391
I1
sVVBD_BEZ
p6392
I2
sVCD-TL_,-TL
p6393
I4
sVFW-NN_*
p6394
I1
sVAT_,-NC
p6395
I1
sV.-HL_VBG-HL
p6396
I6
sVNN-TL_JJ
p6397
I262
sVJJ_RBR+CS
p6398
I1
sV,-HL_RP-HL
p6399
I1
sVVBD_BEG
p6400
I1
sV''_VBN-TL
p6401
I1
sVAT_BED
p6402
I188
sVAT_BEG
p6403
I72
sVBEDZ-NC_PPSS-NC
p6404
I1
sVAT_BEM
p6405
I21
sVAT_BEN
p6406
I232
sVCC_JJ-TL
p6407
I32
sVAP-TL_JJ-TL
p6408
I1
sVAT_BER
p6409
I273
sVJJ_``
p6410
I639
sVAT_BEZ
p6411
I1964
sV''_BEM
p6412
I5
sV''_BEN
p6413
I4
sVFW-PP$_FW-CC
p6414
I1
sVDTS_*
p6415
I1
sVDTS_)
p6416
I2
sVDTS_(
p6417
I1
sV''_BEG
p6418
I1
sV._NNS-NC
p6419
I3
sVDTS_:
p6420
I3
sV''_BEZ
p6421
I12
sVHV_``
p6422
I14
sVNNS-HL_NP-HL
p6423
I2
sV''_BER
p6424
I8
sVBER_PPSS
p6425
I702
sVPPS-HL_start
p6426
I1
sVPP$_WRB+BEZ
p6427
I3
sVIN-NC_,
p6428
I2
sVNR-TL_IN
p6429
I5
sVNN-TL-HL_(-HL
p6430
I5
sVWPO_PN
p6431
I5
sVVB_DO
p6432
I50
sVNP-TL_CD-TL
p6433
I38
sVDTX_IN
p6434
I43
sVRB_ABN
p6435
I36
sVNP-TL_FW-AT-HL
p6436
I1
sVRB_ABX
p6437
I22
sVNNS-HL_VBZ-HL
p6438
I6
sV,_NNS-HL
p6439
I1
sVVB_DT
p6440
I26
sVIN-HL_VBG-HL
p6441
I13
sVNNS-TL_DTS
p6442
I8
sVFW-PPL_IN
p6443
I8
sVAT_ABL
p6444
I346
sVNN_TO
p6445
I6
sV''_JJ-TL
p6446
I15
sVEX_VBG
p6447
I4
sVNN_FW-NN$
p6448
I2
sVWDT+BEZ_,
p6449
I1
sV--_QLP
p6450
I4
sVBER_NN-TL
p6451
I29
sVCC_'
p6452
I9
sVCC_,
p6453
I9010
sVCC_*
p6454
I3
sVCC_)
p6455
I166
sVCC_(
p6456
I104
sVDTI_BER*
p6457
I1
sVNN-HL_WRB-HL
p6458
I3
sVRB-HL_BEZ-HL
p6459
I1
sVVB-HL_NNS-HL
p6460
I8
sVCD_``
p6461
I54
sVQL_NPS
p6462
I7
sV,_FW-NNS-TL
p6463
I3
sVCC_RBT
p6464
I2
sVCC_RBR
p6465
I52
sVHV_NP-TL
p6466
I9
sVEX_HVD
p6467
I2
sVEX_HVZ
p6468
I3
sVPPSS+MD_PPL
p6469
I1
sVBEDZ-NC_WDT-NC
p6470
I2
sVPPSS+MD_PPO
p6471
I3
sVNP-TL_WDT
p6472
I5
sVTO_MD
p6473
I71
sVBEDZ_EX
p6474
I571
sVDT_PP$
p6475
I1
sVFW-UH_start
p6476
I1
sVIN_BEDZ*
p6477
I7
sVHVD*_start
p6478
I1
sVDTS_BE
p6479
I2
sVJJ-TL-HL_IN-TL-HL
p6480
I1
sVFW-JJ-TL_FW-CC-TL
p6481
I1
sVNNS_'
p6482
I12
sVDT_PPL
p6483
I6
sV.-HL_NR-TL-HL
p6484
I1
sVNNS_)
p6485
I57
sVJJ_WQL
p6486
I61
sVNNS_,
p6487
I1121
sVDT_PPS
p6488
I1
sVNNS_:
p6489
I29
sVNP_PPS+BEZ
p6490
I3
sVJJS-TL_CC
p6491
I1
sV--_DT
p6492
I18
sVNPS_IN-TL
p6493
I1
sVHV*_RB
p6494
I2
sVPPO_VBG-TL
p6495
I1
sV--_DO
p6496
I8
sVPPSS_BEZ
p6497
I7
sVPPSS_BER
p6498
I94
sVBEDZ-NC_DT-NC
p6499
I2
sV._,
p6500
I1
sV._.
p6501
I5913
sV._)
p6502
I416
sV._*
p6503
I67
sVPPSS_BEM
p6504
I14
sVFW-WDT_FW-CC
p6505
I1
sVDT-NC_IN
p6506
I2
sV._'
p6507
I11
sVPPSS_BED
p6508
I16
sVPN_PPS+BEZ
p6509
I5
sVVBZ_NP
p6510
I554
sVVBZ_NR
p6511
I9
sVHV_VBG-TL
p6512
I1
sVFW-JJ-TL_FW-CD-TL
p6513
I1
sVHVZ_WPS
p6514
I132
sVVB_PPLS
p6515
I15
sVHVZ_WPO
p6516
I1
sVJJ_OD
p6517
I91
sVPPS+BEZ_VB
p6518
I13
sVVB-HL_MD-HL
p6519
I12
sVNR_HV
p6520
I3
sV''_FW-RB
p6521
I4
sV,_FW-RB+CC
p6522
I1
sVDOD_QL
p6523
I1
sVCS_JJ
p6524
I1529
sV---HL_NNS-HL
p6525
I1
sVPPL_NN-TL
p6526
I12
sVFW-NNS_,
p6527
I5
sVWDT_VBZ
p6528
I37
sVOD-TL_NP$
p6529
I12
sVNP+HVZ_CS
p6530
I1
sVNNS_NR-TL
p6531
I1
sVFW-AT+NN-TL_(
p6532
I2
sVFW-AT+NN-TL_,
p6533
I1
sVWDT_VBN
p6534
I38
sV)_FW-AT+NN-TL
p6535
I1
sVWDT_VBD
p6536
I87
sVWDT_VBG
p6537
I52
sVFW-JJ-TL_FW-NN-TL
p6538
I24
sVJJ_IN-TL
p6539
I1
sVDT_WRB
p6540
I68
sV(_VB
p6541
I18
sV,_QLP
p6542
I38
sVWRB_--
p6543
I27
sVRB_CD-TL
p6544
I5
sVNP+BEZ_IN
p6545
I1
sVABX_''
p6546
I1
sVJJR-TL_AT-TL
p6547
I1
sVPPSS+MD_NN-TL
p6548
I1
sVRB-HL_NP-HL
p6549
I1
sVDOD_BEDZ
p6550
I1
sVNR_AP
p6551
I24
sVJJT_start
p6552
I16
sVHVD-HL_'
p6553
I1
sVNNS_AP
p6554
I2358
sVNNS_AT
p6555
I7215
sVCD_MD
p6556
I6
sVNP+HVZ_:
p6557
I1
sVPPS_RBR
p6558
I24
sVFW-VBN_BER
p6559
I1
sVAT_ABN
p6560
I510
sV'_:
p6561
I8
sVFW-QL_FW-CC
p6562
I1
sVRB-TL_IN-TL
p6563
I1
sVNP$_BEDZ
p6564
I30
sV'_,
p6565
I33
sVAT_ABX
p6566
I74
sV'_)
p6567
I1
sVPP$-HL_VB-HL
p6568
I1
sVAT_RBR
p6569
I42
sV'_*
p6570
I1
sVWDT_UH
p6571
I1
sVCC_JJT
p6572
I41
sVPN$_BE
p6573
I1
sVCC_JJS
p6574
I2
sVCC_JJR
p6575
I109
sVNP-TL_FW-IN-TL
p6576
I3
sVHVN_HVD
p6577
I63
sVHVN_HVG
p6578
I4
sVHVN_HVZ
p6579
I24
sVRP_VB
p6580
I1356
sVNNS$-TL_JJ-TL
p6581
I9
sVVBZ_ABX
p6582
I3
sVPPL_BEDZ*
p6583
I1
sVNP_PN
p6584
I6
sVHVG_VBG
p6585
I1
sVHVG_VBD
p6586
I4
sVNNS-TL_NR$
p6587
I1
sVNNS_VBG-HL
p6588
I1
sVWPS_WDT
p6589
I1
sVIN-HL_JJ-HL
p6590
I6
sVFW-VBG-TL_NN
p6591
I1
sVDTI_IN
p6592
I1096
sVFW-NN_VB
p6593
I4
sVABN_IN
p6594
I1072
sV--_''
p6595
I178
sVNR_HVZ
p6596
I1
sVABX_HV
p6597
I5
sVBE_VB
p6598
I3
sVWRB_HVD
p6599
I5
sVCC-TL_--
p6600
I1
sVDT+BEZ_RB
p6601
I8
sVJJR_PN
p6602
I10
sVRB_WPS
p6603
I157
sVABN_DO*
p6604
I1
sVPPO_BEZ*
p6605
I1
sVJJ-NC_``
p6606
I7
sVDT+BEZ_RP
p6607
I1
sVRB_WPO
p6608
I4
sV.-HL_``
p6609
I2
sVNPS-HL_NP-HL
p6610
I1
sVRBT_VBD
p6611
I9
sVRBR_PN
p6612
I6
sVRBT_VBN
p6613
I4
sVOD_NN
p6614
I4
sVPP$_BE
p6615
I34
sVOD_NP
p6616
I41
sV---HL_VBG-HL
p6617
I3
sVPPS_PPS
p6618
I1
sVFW-IN+AT-TL_FW-NN-TL
p6619
I7
sVWPS-NC_NNS-NC
p6620
I1
sVBEDZ_OD-TL
p6621
I2
sVVB-NC_PPSS-NC
p6622
I5
sVNP$_BE
p6623
I8
sVBEDZ_NNS-TL
p6624
I22
sVVBN_PPSS+BEM
p6625
I22
sVUH_``
p6626
I292
sVVBN_PPSS+BER
p6627
I17
sV'_WRB-NC
p6628
I3
sVHV-HL_ABN-HL
p6629
I1
sV,_CS
p6630
I208
sVABN_DOD
p6631
I4
sVCS-NC_RBR-NC
p6632
I1
sVNN+BEZ-TL_start
p6633
I1
sVVB+TO_PPSS
p6634
I2
sVNN-TL_''
p6635
I6
sV.-NC_RB-NC
p6636
I1
sV,_CC
p6637
I472
sV*_IN
p6638
I33
sV,_CD
p6639
I1380
sVDOD_,
p6640
I37
sVPP$-TL_``
p6641
I3
sVBEZ-TL_NN-TL
p6642
I4
sVBEG_NN$
p6643
I2
sVWDT-HL_IN-HL
p6644
I2
sVWP$_VB
p6645
I1
sVNN-NC_:
p6646
I3
sV:_DTS
p6647
I3
sVNNS_VBZ
p6648
I133
sVDO_PPS+MD
p6649
I7
sVNNS_VBD
p6650
I339
sVNNS_VBG
p6651
I1552
sVNP$-TL_start
p6652
I3
sVJJR_start
p6653
I30
sVNNS_VBN
p6654
I1263
sVNPS-HL_,-HL
p6655
I1
sV)_VBD
p6656
I4
sV)_VBG
p6657
I13
sVAT-NC_BEDZ-NC
p6658
I5
sVABX_VBG
p6659
I8
sVPPSS-NC_IN
p6660
I9
sVRB-TL_AT-TL
p6661
I1
sVBEN_NN
p6662
I14
sVNP-TL_WPO-TL
p6663
I1
sVNNS-TL_IN
p6664
I96
sVNNS-TL_NP-TL
p6665
I173
sVBEG_NNS
p6666
I29
sVVBN_NP
p6667
I60
sVPPS_CS
p6668
I3012
sVVBN_NR
p6669
I5
sVHVZ_DT
p6670
I32
sVPPS_CD
p6671
I47
sV*-HL_(-HL
p6672
I1
sVHVZ_RBR
p6673
I1
sVPPS_CC
p6674
I1399
sVVBN_NN
p6675
I1684
sVWDT_--
p6676
I56
sVVBG_PPS+BEZ
p6677
I31
sV)_NRS
p6678
I1
sVNN_JJT
p6679
I422
sVNN_JJS
p6680
I202
sVNN_JJR
p6681
I679
sVDO_WPS
p6682
I11
sVVBG_NN$
p6683
I30
sVJJ-NC_BED-NC
p6684
I1
sV)_NP-HL
p6685
I1
sVPPSS_WRB+MD
p6686
I1
sVIN-TL_AT
p6687
I1
sVJJ-HL_CS-HL
p6688
I1
sVAT_NNS
p6689
I417
sVAP-TL_AT
p6690
I2
sV*_PPS+HVD
p6691
I1
sVFW-RB_IN
p6692
I4
sVFW-JJ_``
p6693
I5
sVVB-HL_TO
p6694
I1
sVVBG_NNS
p6695
I738
sV._start
p6696
I40
sVTO_WDT
p6697
I63
sVFW-NN_IN
p6698
I13
sVABN_VB
p6699
I182
sVIN-TL-HL_NP-TL-HL
p6700
I1
sVNN-TL_DT
p6701
I110
sVVB_PP$
p6702
I7
sVRBT_NNS
p6703
I4
sVNN-NC_VBG-NC
p6704
I3
sVJJ-TL_NP$-TL
p6705
I4
sV,_DTI
p6706
I14
sVBEZ*_``
p6707
I7
sV,_DTS
p6708
I20
sV,_DTX
p6709
I1
sVCC_OD-TL
p6710
I4
sVNN_NPS$-TL
p6711
I1
sVHV-TL_MD-TL
p6712
I1
sVVBN_HVZ
p6713
I926
sV.-HL_IN-HL
p6714
I2
sVVBZ_QL
p6715
I5
sVAT-NC_NP+BEZ-NC
p6716
I2
sVVBN_HVN
p6717
I6
sVNP_UH-TL
p6718
I1
sVPN$_BEDZ
p6719
I3
sVRBR_PPSS
p6720
I5
sVVBN_HVG
p6721
I85
sVVBN_HVD
p6722
I2169
sVRB-HL_VBZ-HL
p6723
I4
sVBEDZ_NN-TL
p6724
I140
sVEX+BEZ_CC
p6725
I10
sVBED_RBR
p6726
I1
sVVBN_HV*
p6727
I23
sVNNS_WDT
p6728
I115
sVCD_AT-TL
p6729
I1
sVEX+BEZ_CS
p6730
I5
sVVBN-HL_AT-HL
p6731
I6
sVJJ-TL_RB
p6732
I17
sVRBT_VBZ
p6733
I3
sVDOD_PPSS
p6734
I145
sVNP$_BEDZ*
p6735
I2
sVVB_PPO
p6736
I437
sVAT-TL-HL_start
p6737
I1
sVVB_PPL
p6738
I15
sVVB_PPS
p6739
I146
sVJJ-TL_RP
p6740
I1
sVNR$_AP
p6741
I2
sVMD_FW-NN
p6742
I2
sVJJS_CS
p6743
I1
sVAT_VB
p6744
I6044
sVNP_JJT
p6745
I10
sVNNS-TL_DTI-TL
p6746
I1
sVNP_JJS
p6747
I1
sVNP_JJR
p6748
I16
sVJJS_CC
p6749
I8
sVDOD*_WPS
p6750
I6
sVJJS_CD
p6751
I16
sV``_VBN
p6752
I118
sVCD_PPSS+BER
p6753
I3
sV``_VBG
p6754
I53
sVNN_VB
p6755
I1463
sV``_VBD
p6756
I71
sV--_DTI
p6757
I2
sVVB-TL_JJ-TL
p6758
I1
sV``_VBZ
p6759
I40
sV--_DTS
p6760
I2
sVCD_PPSS+BEM
p6761
I1
sVMD_NN-NC
p6762
I1
sVPPSS_VBZ
p6763
I13
sVPPS+BEZ_``
p6764
I96
sVHVZ_JJ-TL
p6765
I9
sVPPSS_VBN
p6766
I31
sVPPSS_VBG
p6767
I18
sVPPSS_VBD
p6768
I105
sVABL_BE
p6769
I4
sVHVD*_NN-TL
p6770
I2
sVNPS$_CS
p6771
I1
sVWDT_NN
p6772
I968
sVPPL_HVZ
p6773
I1
sVAT-HL_WRB-HL
p6774
I2
sVWDT_NR
p6775
I2
sVWDT_NP
p6776
I26
sVDOD*_NN-TL
p6777
I2
sVDT_EX
p6778
I1
sVBED_IN
p6779
I2
sVHVN_``
p6780
I1
sVPP$$_start
p6781
I6
sVBED_start
p6782
I3
sVDTI_VB
p6783
I292
sVAP-TL_IN-TL
p6784
I1
sVQL_IN
p6785
I405
sVPPO_HVD
p6786
I22
sV:_QLP
p6787
I1
sVPPO_HVN
p6788
I7
sVAT-NC_VBG-NC
p6789
I2
sVNN$-TL_DTI
p6790
I2
sVPPO_HVZ
p6791
I3
sVNN-TL-HL_VB-HL
p6792
I2
sVAP_BER*
p6793
I2
sVHVD_VBD
p6794
I10
sV--_JJ
p6795
I166
sV,-HL_NPS-HL
p6796
I1
sVHVZ_JJS
p6797
I1
sVVBN_FW-VB
p6798
I1
sVMD-TL_NP-TL
p6799
I1
sVDTI_BED
p6800
I14
sVOD_ABN
p6801
I1
sVFW-NN-TL_FW-NN-TL
p6802
I7
sVOD_ABX
p6803
I1
sV''_FW-JJ-TL
p6804
I2
sVBEG_start
p6805
I16
sVFW-NNS_FW-PP$-NC
p6806
I1
sVCC_HVG
p6807
I1
sVRB_JJR-TL
p6808
I1
sVCC_HVD
p6809
I2
sVJJ_AT
p6810
I19487
sVJJ_AP
p6811
I742
sVVBG_PP$$
p6812
I1
sVCC_HVZ
p6813
I1
sVJJR-NC_AT-NC
p6814
I2
sVVBN_WP$
p6815
I3
sV``_AP
p6816
I20
sVNR_JJ
p6817
I42
sV``_AT
p6818
I620
sVVBN-TL-NC_``
p6819
I2
sVDO_''
p6820
I1
sVVBN_WPO
p6821
I1
sV``_start
p6822
I4168
sVHV_VB
p6823
I3
sVCS_HV
p6824
I12
sVWRB+IN_``
p6825
I1
sVWPS+BEZ_PPO
p6826
I2
sVQL_VBZ
p6827
I139
sVQL_VBD
p6828
I238
sVDO_RB
p6829
I44
sVHVN_HVZ*
p6830
I1
sVQL_VBN
p6831
I235
sVPPS+MD_(
p6832
I1
sVPPS+MD_,
p6833
I26
sVBEN_EX
p6834
I3
sVAP_ABN
p6835
I36
sV(_PN
p6836
I2
sVDT_WPS
p6837
I2
sVDOZ*_DT
p6838
I4
sVCD-TL_NPS
p6839
I5
sVNN-NC_JJ-TL-NC
p6840
I1
sVDT_WPO
p6841
I4
sVDT_JJ-TL
p6842
I1
sVPPSS+HV_WRB
p6843
I5
sVCD-TL_NP$
p6844
I5
sVVBG_BER*
p6845
I7
sVNNS-HL_NN-HL
p6846
I92
sVCD_NN$-TL
p6847
I3
sVDTI_PPSS
p6848
I3
sVCD_JJR
p6849
I14
sVCD_DOD
p6850
I3
sVBED_DTS
p6851
I34
sV.-HL_NPS-HL
p6852
I2
sVBER_VB
p6853
I12
sVTO-NC_VB-NC
p6854
I1
sVCD_OD
p6855
I69
sV,_'
p6856
I21
sV,_*
p6857
I76
sVNNS_OD
p6858
I91
sVVBZ-TL_WPS-TL
p6859
I1
sV,_)
p6860
I393
sVCD_DOZ
p6861
I1
sVBED_DTI
p6862
I2
sVNN-TL_BED
p6863
I2
sVPPSS_CD
p6864
I18
sVPPSS_CC
p6865
I1030
sVBE_TO
p6866
I1712
sVHVD_PPLS
p6867
I1
sVPPSS_CS
p6868
I2430
sVCD-HL_NN-HL
p6869
I32
sVNN-TL_BER
p6870
I1
sVDOZ*_,
p6871
I3
sVDTS+BEZ_start
p6872
I1
sVNN-TL_BEZ
p6873
I12
sVPPS+BEZ_PPO
p6874
I3
sVDT_DTX
p6875
I2
sV:_NNS-NC
p6876
I1
sVBEDZ_NP-TL
p6877
I25
sVFW-IN+AT_FW-TO+VB
p6878
I1
sV,_PPS
p6879
I59
sV,_PPL
p6880
I166
sV,_PPO
p6881
I1318
sVBEZ-NC_AT
p6882
I1
sVPPS+BEZ_,
p6883
I49
sVNP_VB
p6884
I472
sVPPS+BEZ_'
p6885
I3
sVPPL_NP
p6886
I68
sVIN_JJR
p6887
I74
sVPPL_NN
p6888
I143
sVCC-TL_NNS-TL
p6889
I24
sVPPS+BEZ_:
p6890
I3
sV,_PP$
p6891
I5
sVJJ_NP+BEZ
p6892
I2
sVABX_NN
p6893
I25
sVNNS_DOD
p6894
I6
sVABX_NP
p6895
I4
sVVB-NC_PPSS+MD-NC
p6896
I2
sVJJ-TL_DOZ
p6897
I2
sVJJR_NR
p6898
I1
sVBEZ_NNS-NC
p6899
I1
sVEX_NR-TL
p6900
I1
sVNP$_start
p6901
I267
sV--_JJ-TL
p6902
I4
sVNNS-HL_WRB-HL
p6903
I1
sV:_DT
p6904
I25
sVJJ-TL_DOD
p6905
I1
sVCC-HL_VBZ-HL
p6906
I1
sVBEDZ*_PP$$
p6907
I1
sVJJR_NN
p6908
I57
sV--_start
p6909
I215
sVRBR_NP
p6910
I14
sVRP_NNS
p6911
I125
sVVBG-TL_PPSS+BER-TL
p6912
I1
sVRBR_NN
p6913
I116
sVDTS_--
p6914
I12
sVIN_NR-TL
p6915
I20
sVEX_--
p6916
I13
sVPPSS+BER-TL_WRB-TL
p6917
I1
sVNNS$-TL_DT
p6918
I1
sVNNS$_start
p6919
I8
sV,_EX
p6920
I1
sVHV+TO_PPSS
p6921
I1
sVWPO_IN
p6922
I95
sVBE_PPS
p6923
I34
sVCC_PPSS
p6924
I40
sVNP_start
p6925
I3748
sVJJ-HL_IN-HL
p6926
I39
sVFW-AT+NN-TL_IN
p6927
I2
sVBE_PPL
p6928
I4
sV*_NNS$
p6929
I1
sVBE_PPO
p6930
I25
sVAT-HL_start
p6931
I114
sVRP_JJT
p6932
I1
sVVBD_HVD*
p6933
I1
sVBEZ*_VBG
p6934
I3
sVABL_PPS+BEZ
p6935
I4
sV._FW-NP-TL
p6936
I1
sVBEDZ_VBD
p6937
I41
sVVBD_--
p6938
I62
sVNP-HL_start
p6939
I170
sVPPS_DT+BEZ
p6940
I1
sVBEDZ_VBN
p6941
I35
sV''_WRB
p6942
I12
sVJJT_NNS
p6943
I1
sVPN_PPSS+HV
p6944
I1
sVFW-PP$-NC_IN
p6945
I1
sVVBD_PN
p6946
I130
sVAP_--
p6947
I24
sVAT-HL_BEZ-HL
p6948
I6
sVAT_CD-TL
p6949
I3
sVBE-HL_TO-HL
p6950
I4
sVVBG_BEM*
p6951
I6
sVPP$$_*
p6952
I4
sV)_VBN
p6953
I31
sVJJT_NN$
p6954
I22
sVPP$$_,
p6955
I2
sVDT_NP+BEZ
p6956
I2
sVNNS-HL_AT-HL
p6957
I27
sVBE_NNS
p6958
I47
sVTO-HL_VBZ-HL
p6959
I2
sVCS_FW-NNS
p6960
I1
sV``_NNS-TL
p6961
I2
sVPPS_AP
p6962
I21
sVPN_BEDZ*
p6963
I3
sV,_FW-WPO
p6964
I1
sVAT-HL_)-HL
p6965
I4
sVDTS-HL_start
p6966
I1
sV._OD
p6967
I50
sVFW-VBG_FW-VBG
p6968
I1
sVRB-HL_CS-HL
p6969
I1
sVPPS+HVD_NNS
p6970
I2
sV)_VBZ
p6971
I5
sVAT_NPS
p6972
I12
sVPP$$_HV
p6973
I1
sVNP_FW-NN-TL
p6974
I2
sV)_NPS
p6975
I5
sVOD_NN$-TL
p6976
I4
sV)_NP$
p6977
I4
sVPP$_PPO
p6978
I51
sVHVG_RB
p6979
I10
sVIN-HL_JJT-HL
p6980
I1
sVVBD_FW-JJ-TL
p6981
I1
sVAT_NP$
p6982
I1
sVPP$_PPS
p6983
I4
sVUH-TL_``
p6984
I7
sVJJ-HL_(-HL
p6985
I5
sVPPLS_BE
p6986
I2
sVFW-NN-TL_FW-IN
p6987
I3
sVOD_WRB
p6988
I1
sVBEZ_FW-NN
p6989
I4
sVAT-NC_NNS
p6990
I1
sVVBN-TL_''
p6991
I1
sVUH_CC
p6992
I8
sVEX+HVZ_,
p6993
I1
sV,_CD-TL-HL
p6994
I2
sVAP_:
p6995
I4
sVNP_OD-TL
p6996
I6
sVRB_BED*
p6997
I2
sVNN$-TL_ABX
p6998
I1
sVAP_,
p6999
I227
sVAP_*
p7000
I81
sVEX+BEZ_:
p7001
I1
sVAP_(
p7002
I7
sVAP_)
p7003
I5
sVVB-TL_IN-TL
p7004
I1
sVRBR_BER
p7005
I8
sVDT_OD
p7006
I1
sVNN-TL_NN-TL
p7007
I1913
sVIN_JJ
p7008
I3775
sVRBR_BEZ
p7009
I18
sVHVZ_DO
p7010
I1
sVHV_VBN+TO
p7011
I1
sVRBR_BED
p7012
I5
sVFW-IN-TL_FW-AT+NN-TL
p7013
I2
sVRBR_BEN
p7014
I6
sVBED-NC_PPSS-NC
p7015
I2
sVHV_VB+PPO
p7016
I2
sVPN$_DOD
p7017
I2
sVRBR_NN-TL
p7018
I5
sVDO*-HL_start
p7019
I3
sVAP_NN-TL
p7020
I18
sVUH_JJ
p7021
I2
sVBEDZ_NPS$
p7022
I1
sVRB_BEDZ
p7023
I1097
sVVBZ-NC_IN
p7024
I3
sVDOD_HV
p7025
I1
sVVB+TO_DO*
p7026
I1
sV''_NN$-TL
p7027
I1
sVNN$_JJR
p7028
I3
sVNR$_CS
p7029
I3
sVAT_TO
p7030
I1
sVDOD*_WRB
p7031
I10
sVPPS_FW-NN-TL
p7032
I1
sVNR$_CC
p7033
I4
sVVBZ_WP$
p7034
I1
sV*_WDT
p7035
I8
sVJJ_BEZ*
p7036
I17
sVNN_HV
p7037
I108
sVVBD_NR-TL
p7038
I8
sVVBZ-HL_,-HL
p7039
I1
sVPPO_DO*
p7040
I20
sVJJR-HL_start
p7041
I11
sVOD_--
p7042
I1
sVNRS_DTS
p7043
I1
sVNR$-TL_IN
p7044
I2
sVJJS_AP
p7045
I8
sVNNS-HL_AP-HL
p7046
I11
sVJJS_AT
p7047
I206
sVDTS_WDT+BEZ
p7048
I1
sVPPL_--
p7049
I1
sV--_BEDZ
p7050
I7
sVAP-TL_start
p7051
I1
sVTO_VB
p7052
I1187
sV'_QL
p7053
I2
sV(_FW-NNS
p7054
I1
sVPPO_DOD
p7055
I42
sVRB_:
p7056
I25
sVPPO_DOZ
p7057
I12
sVVBZ_WPS
p7058
I422
sV,-HL_NP-HL
p7059
I93
sVWPS_AP
p7060
I20
sVNN_:
p7061
I93
sVNN_,
p7062
I2394
sVCD-TL_NPS-TL
p7063
I10
sVNN_)
p7064
I102
sVNN_(
p7065
I152
sVNN_*
p7066
I48
sV``_BEDZ
p7067
I47
sVNN_'
p7068
I35
sVVBD_JJ-TL
p7069
I8
sVFW-BER_FW-PPSS
p7070
I1
sVNPS$_AT
p7071
I30
sVPPSS-HL_MD-HL
p7072
I1
sVPP$$_BEZ*
p7073
I1
sVFW-RB+CC_FW-RB
p7074
I1
sV--_HV
p7075
I1
sVBED_VB
p7076
I3
sVPN+BEZ_,
p7077
I1
sVBEN_RBR
p7078
I1
sVNP_FW-NN
p7079
I2
sVPN+BEZ_:
p7080
I1
sV--_MD*
p7081
I1
sVIN_NNS-TL
p7082
I182
sVOD-TL_CD-TL
p7083
I5
sVBER*-NC_EX-NC
p7084
I1
sVNNS_VBN-TL
p7085
I3
sVNP+BEZ-NC_CC-NC
p7086
I1
sVHVD_EX
p7087
I43
sV''_IN+PPO
p7088
I1
sVABN_``
p7089
I44
sVCC_BE
p7090
I12
sVPPO-NC_VBG-NC
p7091
I1
sVAT_FW-NNS-TL
p7092
I1
sVVBN-HL_start
p7093
I28
sVBEN_NN+HVD-TL
p7094
I1
sVNP+BEZ_CC
p7095
I4
sVIN-HL_PPO-HL
p7096
I1
sVVBN-NC_IN
p7097
I1
sVWRB_BEZ
p7098
I40
sVWDT_PPO
p7099
I36
sVFW-NN$-TL_FW-IN-TL
p7100
I1
sVCD_NN-TL
p7101
I34
sVNR-HL_start
p7102
I4
sVVBG-HL_NN-HL
p7103
I10
sVWRB_BED
p7104
I1
sVNP-TL_RB
p7105
I3
sV''_NN-TL-NC
p7106
I3
sVJJ_CS
p7107
I871
sVVBD_PPS+HVZ
p7108
I1
sVNN_VBN-TL
p7109
I10
sVJJ_CC
p7110
I3384
sVFW-IN-TL_FW-NR-TL
p7111
I1
sVAT-TL_start
p7112
I27
sVJJ_CD
p7113
I657
sVAT-TL_CC
p7114
I28
sV``_CS
p7115
I249
sVAP_:-HL
p7116
I1
sVBER-NC_WDT-NC
p7117
I1
sVAT-TL_CS
p7118
I14
sVVBN_WRB
p7119
I95
sV``_CC
p7120
I211
sVCS_PPSS+BER
p7121
I1
sVCS_NR
p7122
I40
sVCS_NP
p7123
I314
sVVBN-TL-HL_start
p7124
I4
sVFW-NNS-TL_FW-IN-TL
p7125
I4
sVHV_TO
p7126
I338
sVWDT-NC_IN
p7127
I4
sVNN+BEZ_JJ
p7128
I4
sVIN-TL_VBN-TL
p7129
I4
sVVBZ-HL_RB-HL
p7130
I1
sVVBZ-TL_NN-TL
p7131
I7
sVCS_NN
p7132
I3300
sVDO_PN
p7133
I1
sV,_FW-NN-TL
p7134
I17
sVNNS_MD
p7135
I8
sVNP-HL_FW-AT
p7136
I1
sVNP_PPSS
p7137
I2
sVJJ_NNS-NC
p7138
I1
sVVB_RB+CS
p7139
I1
sVVBN_''
p7140
I30
sVBEG_NP-TL
p7141
I1
sVNR$_:
p7142
I1
sVBEN_CC
p7143
I4
sVVB+PPO_start
p7144
I19
sV(_''
p7145
I60
sV._DOD*
p7146
I11
sVNR$_,
p7147
I2
sVWPO_BED
p7148
I1
sVNR$_(
p7149
I1
sV''_MD*
p7150
I11
sV(_RP
p7151
I6
sVPPSS+HV_WPS
p7152
I1
sVCD-TL_NNS
p7153
I1
sV(_RB
p7154
I35
sVVBN-HL_``
p7155
I1
sVPN+HVZ_AT
p7156
I1
sVJJ_NIL
p7157
I1
sVEX_BEZ
p7158
I19
sVHVZ*_NP
p7159
I1
sV``_NNS$
p7160
I1
sVVBN-TL_VBN
p7161
I3
sVVBN-TL_VBG
p7162
I7
sVBEZ*_CC
p7163
I4
sVVBZ_NP-NC
p7164
I1
sVCC-TL_NP
p7165
I19
sVHVZ*_NN
p7166
I9
sVDO-NC_CS
p7167
I1
sV)_QLP
p7168
I1
sVWRB-NC_``
p7169
I1
sVCD_AT
p7170
I981
sVCD_AP
p7171
I294
sVIN_BEZ*
p7172
I2
sVPPSS_AP
p7173
I31
sVWDT_QL
p7174
I1
sVVBG-HL_start
p7175
I66
sVPPSS_BER*
p7176
I14
sV--_NNS-TL
p7177
I14
sVRP_RP
p7178
I15
sVFW-IN+AT-T_FW-JJ-TL
p7179
I2
sVNP$-HL_start
p7180
I2
sVVBG-NC_CS
p7181
I3
sV(_NPS
p7182
I11
sVRP_RB
p7183
I121
sVNNS-TL_VB
p7184
I7
sVVBZ-NC_NP-NC
p7185
I1
sV(_NP$
p7186
I7
sVPPL_''
p7187
I2
sVUH-HL_start
p7188
I1
sVHVG_PPS+BEZ
p7189
I2
sVJJ_WPS+BEZ
p7190
I1
sVFW-JJ_FW-CS
p7191
I1
sVJJ-TL-NC_,
p7192
I1
sVABN_MD
p7193
I15
sV)-HL_NN-HL
p7194
I6
sVPPS_NN-TL
p7195
I13
sVWRB_start
p7196
I843
sVDOZ-TL_PPS-TL
p7197
I2
sVIN-TL_VB
p7198
I1
sVPPSS+MD_CC
p7199
I53
sVMD_JJR
p7200
I4
sVDTI_EX+BEZ
p7201
I3
sVMD_JJT
p7202
I1
sV:_JJ
p7203
I67
sVPPSS+MD_CD
p7204
I1
sVNR_JJR
p7205
I1
sVCC_NN$-TL
p7206
I3
sV*_MD
p7207
I686
sVNR_*
p7208
I1
sVNR_,
p7209
I23
sVPPSS+MD_CS
p7210
I26
sVJJ_NN+IN
p7211
I1
sVWDT_NNS-TL
p7212
I5
sVNN$_WDT
p7213
I1
sVRP_--
p7214
I5
sVNR_:
p7215
I2
sVQL_HVN
p7216
I7
sVIN-TL_BEDZ
p7217
I1
sVOD_JJ
p7218
I45
sVVBZ-HL_start
p7219
I27
sVAT-TL_NNS-TL
p7220
I1
sVMD_VB-NC
p7221
I2
sVBE-HL_NNS-HL
p7222
I1
sVPPSS+BER_DO
p7223
I1
sVCD_QLP
p7224
I1
sVVBG-HL_CS-HL
p7225
I1
sVDO-NC_TO-NC
p7226
I1
sVPPS_''
p7227
I21
sV``_VBZ-HL
p7228
I1
sVIN_NN
p7229
I42252
sVVB-NC_DO*
p7230
I1
sVJJ$-TL_AT-TL
p7231
I1
sVPPSS+BER_PPS+BEZ
p7232
I1
sV,-HL_JJ-TL-HL
p7233
I1
sVHVZ_NNS-TL
p7234
I21
sVIN_NP
p7235
I1645
sVFW-NPS-TL_(
p7236
I1
sVAP_DO
p7237
I15
sVCD-TL_NN-TL
p7238
I474
sVVBZ_--
p7239
I28
sV'_NP-TL
p7240
I2
sVAP_DT
p7241
I205
sVAT_VBZ
p7242
I1382
sVNN-HL_IN
p7243
I1
sVHVD_ABX
p7244
I7
sVCC_PP$-NC
p7245
I1
sVFW-NR-TL_CC
p7246
I1
sV''_VBD-TL
p7247
I1
sVAT_VBN
p7248
I1292
sVFW-VB_FW-VB
p7249
I1
sVDO_HV+TO
p7250
I1
sVAT_VBD
p7251
I3910
sVAT_VBG
p7252
I2478
sVQL_''
p7253
I10
sVMD*_WDT
p7254
I5
sVMD_NP-TL
p7255
I28
sVVBN_JJ
p7256
I148
sVPPSS+HV_:
p7257
I1
sVVB_NN$
p7258
I1
sVDO*_NN
p7259
I3
sVCS_BEDZ
p7260
I125
sVPPSS+HV_)
p7261
I1
sVNP-TL_IN-TL
p7262
I414
sV._MD
p7263
I55
sVPPSS+HV_,
p7264
I24
sVFW-NN-TL_FW-JJ-TL
p7265
I18
sVPPSS+HV_'
p7266
I1
sVAT_NRS
p7267
I1
sVMD_FW-WDT
p7268
I1
sVAP-HL_NP-HL
p7269
I1
sVVBG_--
p7270
I73
sV''_WPS+BEZ
p7271
I1
sVPPO-TL_DO-TL
p7272
I2
sVPN_NN-TL
p7273
I2
sVBED_``
p7274
I5
sVMD_--
p7275
I31
sVBEZ_HV-NC
p7276
I1
sVVBG-TL_VBN-TL
p7277
I1
sVVBD_RP
p7278
I6
sVNNS-TL_,
p7279
I20
sVNNS-TL_(
p7280
I4
sVWDT_DT+BEZ
p7281
I28
sVJJR_DOZ
p7282
I1
sVNN$-TL_OD-TL
p7283
I2
sVVB_NNS
p7284
I1527
sVNP-TL_VBG-TL
p7285
I7
sVJJR_DOD
p7286
I1
sVHVD_``
p7287
I4
sVFW-JJ_FW-NN
p7288
I13
sVRB_NNS
p7289
I1452
sVEX_ABN
p7290
I5
sVVBZ_PP$
p7291
I1
sVFW-NN_FW-JJT
p7292
I1
sVJJT-HL_start
p7293
I2
sVUH_AT
p7294
I2
sVFW-JJ-NC_CC
p7295
I1
sV)_FW-NNS
p7296
I2
sV''_PPSS
p7297
I30
sVCC_JJ-NC
p7298
I2
sVDT-NC_``
p7299
I1
sVJJ_DOZ
p7300
I1
sVJJ_DOD
p7301
I6
sVVBZ_PPL
p7302
I14
sVVBZ_PPO
p7303
I14
sVAT-NC_NN
p7304
I4
sVDOD_JJ
p7305
I2
sVJJ-TL_NR
p7306
I2
sVJJ-TL_NP
p7307
I24
sVCS_QL
p7308
I15
sVJJ-TL_NN
p7309
I26
sVRB_NN$
p7310
I4
sVNN_NNS$
p7311
I116
sVNN$_start
p7312
I13
sVVBZ_PPS
p7313
I1366
sVABL_NN
p7314
I2
sVAT_RP
p7315
I632
sVVB_CD-TL
p7316
I3
sVNP$_BEZ
p7317
I13
sVNP$_BED
p7318
I4
sVNP$_BEG
p7319
I1
sVAT_RB
p7320
I2052
sVVB_MD+HV
p7321
I1
sVNP$_BEN
p7322
I6
sV---HL_RP-HL
p7323
I1
sVNNS$_NN
p7324
I8
sVBED_ABN
p7325
I12
sVJJS_OD
p7326
I3
sV--_WPO
p7327
I1
sV,_NNS-NC
p7328
I1
sVPPSS-HL_start
p7329
I3
sVPPS_``
p7330
I185
sVBED_ABX
p7331
I13
sVNN_JJ
p7332
I28407
sVVBN-TL_NN-TL
p7333
I6
sVNR-NC_IN-NC
p7334
I2
sVAP_NP
p7335
I38
sVIN_PP$
p7336
I5
sVVBD-TL_JJ-TL
p7337
I1
sVAP_NR
p7338
I6
sVNPS_PPSS
p7339
I2
sVCC_NP-TL
p7340
I108
sVBER_IN
p7341
I3
sVWPS_CS
p7342
I3
sVHVN_BEG
p7343
I1
sVBEDZ*_NN-TL
p7344
I1
sVWDT_,
p7345
I778
sV._JJ-TL
p7346
I28
sVWPS_CC
p7347
I84
sVWPS_CD
p7348
I54
sV,_PP$$
p7349
I32
sVRB-TL_VBD-TL
p7350
I1
sVVBZ_WRB
p7351
I2
sVWDT_JJ
p7352
I23
sVJJ_BEDZ
p7353
I1087
sVDO_VBG+TO
p7354
I5
sVWDT_'
p7355
I2
sV--_NN
p7356
I1072
sV._RP-TL
p7357
I1
sV--_NR
p7358
I12
sV--_NP
p7359
I157
sVNP$-TL_--
p7360
I1
sVVBN_NP$-TL
p7361
I1
sVDT_AP
p7362
I7
sVTO-NC_IN
p7363
I1
sV)-HL_JJ-HL
p7364
I4
sV*_NN-TL
p7365
I4
sVABN-HL_IN-HL
p7366
I1
sVHV_NPS
p7367
I31
sVDTI_RP
p7368
I32
sVMD*_NPS
p7369
I1
sVIN_FW-NN-TL
p7370
I8
sVDT_DOD*
p7371
I1
sVCD-TL_,
p7372
I52
sVNN-TL-NC_``
p7373
I3
sVRB_NP-TL
p7374
I15
sVAP-TL_``
p7375
I5
sVCD-TL_(
p7376
I3
sVVB_start
p7377
I834
sVDTI_RB
p7378
I60
sVTO_FW-NN
p7379
I5
sVCD-TL_'
p7380
I1
sVVBG_WRB
p7381
I49
sVHVD_CS
p7382
I9
sVRP_DT+BEZ
p7383
I1
sVNN-HL_CD-HL
p7384
I3
sVFW-JJ-NC_FW-NNS-NC
p7385
I1
sVHVD_CC
p7386
I104
sVJJ_BED*
p7387
I3
sVHVD_CD
p7388
I15
sVNNS+MD_PP$
p7389
I1
sVIN_'
p7390
I22
sVIN_,
p7391
I4622
sVNNS_VB-TL
p7392
I1
sVBEN_MD+HV
p7393
I1
sVIN_(
p7394
I197
sVIN_)
p7395
I215
sVIN_*
p7396
I261
sVIN_:
p7397
I41
sVCS_NPS
p7398
I24
sVNN-TL-HL_AT-HL
p7399
I7
sV(-HL_NNS
p7400
I1
sVAT_BEM*
p7401
I2
sVMD-HL_NNS-HL
p7402
I3
sVDTX_VBN
p7403
I1
sVBE_PPS+MD
p7404
I33
sV)_NNS-TL
p7405
I7
sVDTX_VBG
p7406
I2
sVDTX_VBD
p7407
I1
sVEX_NNS
p7408
I28
sVDTS_DO
p7409
I6
sVPPSS_RBR
p7410
I25
sVPPSS_RBT
p7411
I2
sVVBG-TL_NNS$-TL
p7412
I1
sVCS_NP$
p7413
I6
sVOD-TL_PP$
p7414
I4
sVNR_VB
p7415
I84
sVDT_EX+BEZ
p7416
I3
sVHV_RB
p7417
I173
sVPPO_``
p7418
I10
sVVBZ-TL_RB-TL
p7419
I1
sVOD_PPSS
p7420
I1
sVWDT_PPLS
p7421
I3
sVHV_RP
p7422
I1
sVNN_BEDZ*
p7423
I2
sVNNS$-TL_IN
p7424
I1
sVOD-HL_MD-HL
p7425
I1
sVDO_VB
p7426
I4
sVUH_PPS+BEZ
p7427
I1
sVCD_CD
p7428
I318
sVAP_NP-TL
p7429
I4
sVOD-TL_IN
p7430
I24
sVNN$-TL_JJ
p7431
I10
sVCD_CC
p7432
I674
sVWRB_''
p7433
I12
sVNNS_PPSS
p7434
I16
sVCD_CS
p7435
I240
sV,_MD+HV
p7436
I1
sVBEDZ_NNS
p7437
I189
sV,_AP+AP-NC
p7438
I1
sVVBG-TL_NN$-TL
p7439
I1
sVABN_BER
p7440
I36
sVNN-HL_PP$
p7441
I1
sVABN_BEZ
p7442
I17
sVABN_BED
p7443
I31
sVABN_BEN
p7444
I2
sVDOZ*-TL_PPS-TL
p7445
I1
sV)_FW-JJ-TL
p7446
I3
sVHVZ*_PPS
p7447
I7
sVVBZ-TL_NR-TL
p7448
I1
sVVBZ_NNS-TL
p7449
I19
sVJJ_EX
p7450
I1
sVNNS$_RB
p7451
I1
sVCS_IN-TL
p7452
I1
sVAT_start
p7453
I8297
sVHVD_PPSS+HV
p7454
I2
sVVBZ_JJ-NC
p7455
I2
sVNNS-TL_WDT
p7456
I1
sVPPS+BEZ_AP
p7457
I2
sVPPS_BED
p7458
I5
sVHV*_start
p7459
I1
sVNNS-TL_``
p7460
I32
sV.-NC_.-NC
p7461
I8
sVQL_BER*
p7462
I2
sVTO_NPS
p7463
I19
sVNP$-HL_AT-HL
p7464
I1
sVVBG-HL_---HL
p7465
I3
sVNIL_NNS
p7466
I9
sVPPS+BEZ-NC_IN
p7467
I2
sVNNS$_RP
p7468
I1
sV,_NN+NN-NC
p7469
I1
sVNN-HL_NP-TL
p7470
I1
sVVBN_NN$-TL
p7471
I4
sV(_NRS
p7472
I1
sVTO_HVN
p7473
I30
sVEX_CC
p7474
I215
sVTO_HVG
p7475
I8
sVTO_HVD
p7476
I269
sVHVG_IN
p7477
I76
sVFW-RB_start
p7478
I1
sVHVN_PPS+HVD
p7479
I4
sVOD-TL_NP-TL
p7480
I3
sVJJ_PPLS
p7481
I12
sVTO_HVZ
p7482
I57
sVDOZ-HL_PPS-HL
p7483
I15
sVFW-JJ_FW-AT
p7484
I5
sVVB+PPO_,
p7485
I18
sV--_PPSS+BER
p7486
I1
sV--_PPSS+BEM
p7487
I1
sVRB_WPS+MD
p7488
I1
sVABN_OD
p7489
I20
sVABN-TL_``
p7490
I1
sVABX_BE
p7491
I5
sV,_IN
p7492
I173
sVMD_WDT
p7493
I373
sV''_FW-NNS
p7494
I8
sVHV_WDT
p7495
I41
sVJJT_DT
p7496
I8
sVABN-TL_BEZ-TL
p7497
I1
sVNP+BEZ_``
p7498
I6
sVVBZ_NN-TL
p7499
I141
sVFW-HV_FW-PPSS
p7500
I1
sVJJR_JJ
p7501
I21
sVPPSS+MD_AP
p7502
I2
sVHVD*_PPSS
p7503
I21
sVNNS-TL_HVZ-TL
p7504
I1
sVEX+MD_--
p7505
I2
sVPN_HVN
p7506
I3
sVVBN-NC_HV-NC
p7507
I1
sVEX_CS
p7508
I289
sVPN_HVG
p7509
I4
sVOD_DT
p7510
I46
sVPN_HVD
p7511
I31
sVEX+BEZ_start
p7512
I35
sVAT_CD-HL
p7513
I3
sVRBR_JJ
p7514
I8
sVPN_HVZ
p7515
I10
sVVBD_NNS-TL
p7516
I78
sV._PP$$
p7517
I55
sVNP$-TL_``
p7518
I5
sVBEDZ_JJT
p7519
I2
sVBEDZ_JJR
p7520
I2
sV,_BE
p7521
I56
sVNP$_DO
p7522
I1
sVTO-TL_NNS-TL
p7523
I2
sVPPSS_JJR
p7524
I4
sVPPSS_JJT
p7525
I5
sV''_FW-NN$
p7526
I1
sVAT-TL_``
p7527
I107
sV'_MD*
p7528
I1
sVPPSS+BER_--
p7529
I4
sVAT_OD
p7530
I7
sVVBG-HL_VBN-HL
p7531
I3
sVFW-PN_FW-IN
p7532
I1
sVVBN_HV
p7533
I1262
sVJJ-TL_AT-TL
p7534
I132
sV)_JJR-NC
p7535
I1
sVVBG-HL_IN-HL
p7536
I21
sVAP_JJ
p7537
I74
sVAT-TL_BEN-TL
p7538
I1
sVNPS_WDT
p7539
I5
sVCD-HL_VBG-HL
p7540
I1
sV,-HL_NNS-TL-HL
p7541
I1
sVCC-TL_FW-NNS-TL
p7542
I1
sVWDT-NC_NNS-NC
p7543
I1
sVBEZ_HVD
p7544
I1
sVJJ-TL_NR$
p7545
I3
sVFW-IN+AT-TL_FW-IN+NN-TL
p7546
I1
sVVBG-TL_NN
p7547
I1
sVVBG-TL_NP
p7548
I1
sVWDT_''
p7549
I25
sV--_VBZ-TL
p7550
I1
sVAP-NC_BER*-NC
p7551
I1
sVHVN_,
p7552
I1
sVBEDZ_PN
p7553
I55
sVHVN_*
p7554
I6
sV''_DO*
p7555
I5
sVIN-NC_IN
p7556
I6
sVRB_HVZ*
p7557
I2
sVWDT_DTS
p7558
I11
sVDOD_''
p7559
I1
sVRP_PPSS+BER
p7560
I8
sVQL_NP+BEZ
p7561
I2
sVBEZ_``
p7562
I45
sVRP_PPSS+BEM
p7563
I1
sV''_DOD
p7564
I4
sV''_NR-TL
p7565
I10
sVRP+IN_PPO
p7566
I3
sVVBN_RBR
p7567
I75
sVHVG_VB
p7568
I8
sVWPS+MD_``
p7569
I4
sVHVD_WDT
p7570
I144
sVNNS_PPS+BEZ
p7571
I3
sVNP$_VBZ
p7572
I12
sVIN-HL_RP-HL
p7573
I2
sVNP$_VBD
p7574
I80
sV''_NPS-TL
p7575
I4
sVNP$_VBG
p7576
I33
sVJJT_NPS$
p7577
I1
sVNP$_VBN
p7578
I20
sVFW-RB_CS
p7579
I1
sV'_NP$-TL
p7580
I1
sVAP_DOD
p7581
I7
sVBEG_BEDZ*
p7582
I1
sVNNS-HL_:-HL
p7583
I2
sVNNS_NNS-TL
p7584
I22
sVBED_FW-NNS
p7585
I1
sVNR-TL_AT
p7586
I208
sVAP_DOZ
p7587
I2
sVNN-TL_BE
p7588
I6
sV._MD-NC
p7589
I1
sVNPS_NN-TL
p7590
I8
sVHV_--
p7591
I5
sVWPS+HVD_NNS
p7592
I3
sVNN+HVZ_NN
p7593
I1
sV''_NP-HL
p7594
I2
sVJJR_--
p7595
I5
sVDT_ABL
p7596
I2
sVDT_ABN
p7597
I84
sVMD_DT
p7598
I199
sVBED_FW-NN$
p7599
I1
sV:_NN-HL
p7600
I25
sVPPSS-TL_:
p7601
I1
sV,_NN-TL
p7602
I1617
sVHVN_PPS
p7603
I1
sVNNS-NC_AT-NC
p7604
I3
sVMD_DO
p7605
I3
sVPPSS-TL_,
p7606
I1
sVMD+TO_PPS
p7607
I2
sV)-HL_NNS-HL
p7608
I2
sVPPL_DT
p7609
I3
sVAT_PN
p7610
I18
sVPPS_WRB
p7611
I851
sVQL_NP$
p7612
I15
sVMD_NP$
p7613
I2
sVAT-NC_JJR-NC
p7614
I2
sVNN$-TL_PP$
p7615
I8
sVFW-IN_FW-NN
p7616
I27
sVJJ-HL_CC-HL
p7617
I10
sV--_WRB
p7618
I6
sVPPS-TL_DOD*-TL
p7619
I1
sVPPO-NC_VBD-NC
p7620
I1
sVMD-TL_NN-TL
p7621
I1
sVFW-JJ-TL_NN-TL
p7622
I1
sVPP$_''
p7623
I7
sVNP_DT+BEZ
p7624
I4
sVWDT+BEZ-HL_start
p7625
I1
sVHV_JJR
p7626
I3
sVDTI_BEZ*
p7627
I2
sVVBG_NP+BEZ
p7628
I4
sVNP-HL_:-HL
p7629
I1
sV,_FW-JJ-NC
p7630
I2
sVMD_NPS
p7631
I41
sVVBN+TO_NN+HVZ
p7632
I1
sVVBG-TL_RB-TL
p7633
I1
sVVB-HL_PPSS-HL
p7634
I11
sVVBG_WP$
p7635
I4
sVDT_CS
p7636
I530
sVFW-IN+NN_FW-NN
p7637
I4
sVRB+BEZ_CC
p7638
I1
sV,_RBR
p7639
I158
sVRB_PPS+BEZ
p7640
I47
sVDT_CD
p7641
I58
sVDT_CC
p7642
I380
sVHVD_PPSS
p7643
I584
sVCD_BER
p7644
I64
sV)_VB
p7645
I18
sVCD$_IN
p7646
I4
sVCD_BEZ
p7647
I150
sVCD_BEG
p7648
I5
sVFW-IN-TL_FW-NNS-TL
p7649
I4
sVCD_BED
p7650
I62
sVBED_OD
p7651
I2
sVCD_BEN
p7652
I17
sVNNS-HL_JJ-HL
p7653
I98
sV(-HL_IN-HL
p7654
I1
sVPP$-TL_CC
p7655
I1
sVNNS-TL_WRB
p7656
I1
sVAT-TL_RP-TL
p7657
I3
sVAT_NNS-TL
p7658
I15
sVJJ_AP$
p7659
I1
sVFW-AT_(
p7660
I1
sVFW-AT_,
p7661
I2
sVHVD_AP
p7662
I6
sVPPSS+MD_WDT
p7663
I3
sV:-HL_VBG-HL
p7664
I1
sVDO_TO
p7665
I390
sVPPSS+MD_QLP
p7666
I1
sVHV-HL_NNS-HL
p7667
I1
sVJJ_start
p7668
I1063
sVFW-VBG_FW-CC
p7669
I1
sVEX_NPS
p7670
I1
sVVBN-TL_PP$
p7671
I7
sV''_PPLS
p7672
I6
sVFW-IN-TL_IN
p7673
I2
sVVBN_MD
p7674
I1
sV,_RB-NC
p7675
I4
sVPPS+HVZ_,
p7676
I2
sVNP-TL_VB
p7677
I11
sVWPO_``
p7678
I2
sVNN_VB+AT
p7679
I2
sV._NIL
p7680
I8
sV._PPS-NC
p7681
I1
sVVBG_PN+BEZ
p7682
I3
sV(-HL_NN-HL
p7683
I4
sVNR_PN
p7684
I1
sVAP-HL_VB-HL
p7685
I3
sVPPSS+MD_VBD
p7686
I8
sVPPSS+MD_VBG
p7687
I1
sVNP$_VBZ-HL
p7688
I1
sVHV_PN
p7689
I6
sVPPSS+MD_VBN
p7690
I3
sVNN$_DTI
p7691
I8
sVNN-HL_RP-HL
p7692
I1
sVTO_BEDZ*
p7693
I2
sVNNS_IN
p7694
I5418
sVPPSS_HV*
p7695
I5
sVHV-NC_IN
p7696
I2
sVPPO_HVG
p7697
I3
sVNP_VBG-TL
p7698
I1
sVABX_NPS
p7699
I1
sVJJ+JJ-NC_,
p7700
I2
sVDOZ*_NP
p7701
I15
sVJJS_VBD
p7702
I3
sVJJS_VBG
p7703
I5
sVJJS_VBN
p7704
I2
sVWPS_``
p7705
I25
sVBEG_BED*
p7706
I1
sVPPSS+HV_--
p7707
I1
sVCD_HVD*
p7708
I1
sVDOZ*_NN
p7709
I21
sVVB+IN_``
p7710
I1
sVVBG-TL_AT-TL
p7711
I11
sVVBG+TO_BEDZ
p7712
I2
sVPPS_start
p7713
I5935
sVPPSS_HVD
p7714
I11
sVPP$_NN-TL
p7715
I4
sVPPS+BEZ_CS
p7716
I26
sVNNS-TL-HL_IN-HL
p7717
I1
sVCC_NNS
p7718
I4161
sVFW-NN_FW-CD
p7719
I1
sVVBZ_IN
p7720
I5
sVJJR+CS_NN
p7721
I1
sVPPSS-NC_CS-NC
p7722
I3
sV,_VBN-NC
p7723
I1
sVPPS+BEZ_CC
p7724
I47
sVIN_FW-CD
p7725
I3
sVUH-TL_UH-TL
p7726
I1
sVTO-HL_NN-HL
p7727
I8
sVIN-TL_VBG-TL
p7728
I8
sVAT-TL_NN-TL
p7729
I2
sVWPS+HVD_NN
p7730
I1
sVWP$_DTS
p7731
I5
sVFW-JJ-TL_JJ
p7732
I1
sVDT+MD_,
p7733
I1
sVPN$_BEN
p7734
I3
sVDOD*_CC
p7735
I15
sVNR$_VBG
p7736
I1
sVFW-VB-NC_``
p7737
I2
sVFW-NN$-TL_FW-NNS-TL
p7738
I1
sVNR$_VBN
p7739
I2
sV:_NNS-HL
p7740
I20
sV``_NR-TL
p7741
I2
sV._HV*
p7742
I1
sVNR$_VBZ
p7743
I1
sV._HVZ
p7744
I5
sVAT_NN-TL
p7745
I43
sV'_VB-HL
p7746
I2
sVJJ-HL_NNS-HL
p7747
I7
sV._HVN
p7748
I3
sV._HVD
p7749
I15
sVJJ-HL_JJR-HL
p7750
I1
sVJJR_DTI
p7751
I21
sVABN_AT
p7752
I42
sVFW-NN-TL_FW-RB
p7753
I1
sVVBN-HL_VBG-HL
p7754
I1
sVABN_AP
p7755
I10
sVAP_FW-NN-TL
p7756
I1
sV,_FW-CC
p7757
I1
sV,_FW-CD
p7758
I1
sVRB-TL_NN-TL
p7759
I3
sVWQL-TL_``
p7760
I4
sVJJR_DTS
p7761
I1
sV:_NR
p7762
I4
sVPPSS+HV-TL_CS-TL
p7763
I1
sV:_NP
p7764
I80
sVDTS_''
p7765
I2
sVAT-HL_'
p7766
I1
sVPPSS+BER_VBN
p7767
I1
sVPPSS+BER_VBZ
p7768
I2
sV:_NN
p7769
I463
sVPPS_WRB+DOZ
p7770
I1
sVBER_PN-NC
p7771
I1
sVNN$-TL_NP$
p7772
I2
sVFW-NN_JJT
p7773
I1
sVJJR_HV
p7774
I6
sVAT_PP$
p7775
I5
sVAT-HL_,
p7776
I2
sVDTI_PPS
p7777
I1
sVPPO_CS
p7778
I43
sVAT_PPS
p7779
I25
sVVBG-HL_VB-HL
p7780
I4
sVAT_PPL
p7781
I52
sVNP$_JJ
p7782
I7
sVEX_''
p7783
I2
sVPPO_CC
p7784
I25
sVDTI_PPO
p7785
I32
sVDTI_PPL
p7786
I3
sVFW-NNS_NP$
p7787
I1
sVVBZ_'
p7788
I3
sVPPO_BER*
p7789
I3
sVOD_BEG
p7790
I1
sVPPS_ABX
p7791
I3
sVOD_BED
p7792
I1
sVPPS_ABN
p7793
I46
sVIN_DT+BEZ
p7794
I3
sVIN_RP
p7795
I2017
sVVBD-HL_NNS-HL
p7796
I1
sVAT_MD
p7797
I98
sV,_FW-VBG-TL
p7798
I1
sVJJ-TL_BE-TL
p7799
I1
sVRB-HL_CC-HL
p7800
I4
sVIN_RB
p7801
I5294
sVNP-HL_CD-HL
p7802
I1
sVIN_RN
p7803
I1
sVNN$_VBG
p7804
I6
sVNN$_VBD
p7805
I3
sVBEDZ_PPS
p7806
I2773
sVJJS_VB
p7807
I4
sVNR$_VB
p7808
I1
sVNN$_VBN
p7809
I9
sVNNS-TL_PP$
p7810
I12
sVNN$_VBZ
p7811
I2
sVAP_HV
p7812
I50
sVBEDZ_PPO
p7813
I50
sVVB-TL_PPSS
p7814
I4
sVRP_NNS-TL
p7815
I2
sV.-NC_IN-NC
p7816
I2
sVAT_WPS+BEZ
p7817
I2
sVVBZ_NN-HL
p7818
I1
sVVBD_NNS-NC
p7819
I1
sVRBR_HV
p7820
I1
sVFW-VB_FW-RB
p7821
I1
sV,_VBD-TL
p7822
I1
sV,_PPO-NC
p7823
I2
sVPPSS_CD-TL
p7824
I2
sVABN_DT+BEZ
p7825
I14
sVNNS-TL_AT
p7826
I284
sVNNS-TL_AP
p7827
I21
sV._WPS
p7828
I10
sVVB_VB+PPO
p7829
I59
sV._WPO
p7830
I2
sVBER_``
p7831
I27
sVRP-HL_VBZ-HL
p7832
I2
sVNN-NC_NN
p7833
I6
sVHV_DOZ
p7834
I6
sVPPSS_``
p7835
I994
sVPPO_DOD*
p7836
I9
sVDO*_RB
p7837
I22
sVHV_DOD
p7838
I6
sVCS_NP-NC
p7839
I1
sVJJ-TL_NP$
p7840
I40
sV._IN
p7841
I158
sVBEDZ_RP
p7842
I8
sVDT+BEZ_,
p7843
I29
sVIN-TL_IN
p7844
I2
sVRBT_DO
p7845
I1
sVBEDZ_RB
p7846
I128
sV--_'
p7847
I3
sVPP$_MD
p7848
I21
sVVBD_VB
p7849
I8
sV--_,
p7850
I28
sVVBN-NC_HVZ-NC
p7851
I1
sV--_*
p7852
I3
sV--_)
p7853
I10
sVBEZ_'
p7854
I2
sVCC_UH-NC
p7855
I1
sV,_,-HL
p7856
I1
sVBEZ_,
p7857
I475
sVBEZ_*
p7858
I1
sVBEZ_)
p7859
I62
sVBEM_PPSS
p7860
I205
sVDTS_PPS+BEZ
p7861
I3
sVVBN_FW-CD
p7862
I1
sVFW-RB_AT
p7863
I1
sVAT_DO-NC
p7864
I1
sV'_WRB
p7865
I2
sVNN$_PPO
p7866
I1
sVJJ-TL_JJ
p7867
I150
sVRB_PN
p7868
I212
sVNN_PPL
p7869
I1
sVVBN-HL_NP-HL
p7870
I3
sVNR-TL_CS
p7871
I2
sVAT-HL_:-HL
p7872
I2
sVCC_HVN
p7873
I2
sVPPS_JJR
p7874
I6
sVPPS_JJT
p7875
I5
sVNR-TL_CC
p7876
I9
sVNP_NN$
p7877
I6
sVFW-JJ-TL_FW-NNS-TL
p7878
I6
sVPN_VB
p7879
I219
sVNN-HL_DTI-HL
p7880
I3
sVWRB_UH
p7881
I3
sVRP-HL_NNS-HL
p7882
I2
sVRB_PP$
p7883
I55
sVWPS+MD_start
p7884
I1
sVVBN-NC_``
p7885
I3
sVVB+PPO_RB
p7886
I4
sV''_PN
p7887
I46
sVVBN_PPSS+HV
p7888
I143
sVRB_PPS
p7889
I687
sVAP-HL_---HL
p7890
I1
sVPPS_DTS
p7891
I4
sVRB_PPO
p7892
I703
sVPPSS+BEM_PPO
p7893
I1
sVRB_PPL
p7894
I59
sVNP_NNS
p7895
I99
sVAT-NC_,
p7896
I1
sV._NNS-TL
p7897
I262
sVDOD_NP
p7898
I89
sVPPSS+BER_'
p7899
I1
sV.-HL_JJ-HL
p7900
I11
sVMD_JJ
p7901
I44
sVDOD_NN
p7902
I92
sV._HVD*
p7903
I3
sVPPSS+BER_,
p7904
I23
sVABX_PPSS+BER
p7905
I1
sVNP$-TL_CC
p7906
I3
sVPPS_WPS
p7907
I14
sVPPS_WPO
p7908
I70
sVPPSS+BEM_NP
p7909
I1
sVWPS_start
p7910
I62
sVABX_PPSS+BEM
p7911
I1
sVNR$_IN
p7912
I40
sVAP_PPS+BEZ
p7913
I2
sVRP_NN-TL
p7914
I5
sVNP_FW-VB
p7915
I1
sVVBG-TL_NP-TL
p7916
I4
sVNNS$_JJ
p7917
I16
sVJJ_NPS
p7918
I3
sVDTX_CS
p7919
I10
sVPPL-HL_NN-HL
p7920
I1
sVJJ_)
p7921
I24
sVJJ_(
p7922
I81
sVJJ_*
p7923
I320
sVJJ_'
p7924
I26
sVJJ_NP$
p7925
I327
sVVBD_PPSS+HV
p7926
I3
sVJJ_:
p7927
I46
sVJJR-TL_IN-TL
p7928
I3
sVJJT_*
p7929
I1
sVJJT_,
p7930
I12
sVVBG_WPS+BEZ
p7931
I3
sVNP+BEZ-NC_IN
p7932
I1
sVHVG_BEDZ
p7933
I4
sV''_RP
p7934
I138
sV``_AT-TL
p7935
I1
sV''_RN
p7936
I1
sVBEZ_WRB
p7937
I20
sVRBR-NC_PPL-NC
p7938
I1
sVHVZ_PPL
p7939
I5
sVNR_PP$$
p7940
I1
sVVB_BEDZ
p7941
I12
sVNP_NN+BEZ
p7942
I4
sV''_RB
p7943
I620
sVRB_start
p7944
I3799
sVBE_CD
p7945
I1
sVBE_CC
p7946
I30
sVCC-HL_WRB-HL
p7947
I3
sVBEZ_start
p7948
I62
sVJJS_DTI
p7949
I1
sVIN_JJS
p7950
I6
sVPPLS_WPS
p7951
I1
sV*_NN+BEZ
p7952
I1
sVIN_JJT
p7953
I83
sVBEZ_CD
p7954
I48
sV--_RB
p7955
I175
sVNNS-HL_start
p7956
I150
sVBEZ_CC
p7957
I152
sVNN-TL_WPS
p7958
I2
sVHVD_RBR
p7959
I3
sVJJ-TL_AT-HL
p7960
I5
sVDTI_VBN
p7961
I54
sVNP_BED
p7962
I31
sVNR_RBR
p7963
I6
sVNP_BEG
p7964
I4
sVJJS-TL_NP$
p7965
I1
sVNP_BEN
p7966
I9
sVBED_AP
p7967
I17
sVNP_BER
p7968
I31
sVBEDZ_PP$$
p7969
I4
sVVB_PPSS+HV
p7970
I2
sVNP_BEZ
p7971
I56
sVJJS_IN
p7972
I14
sVEX_VBZ
p7973
I3
sVDTI_VBG
p7974
I62
sVNN_NN
p7975
I11646
sVNN_NP
p7976
I1361
sVNN_NR
p7977
I214
sVEX_VBN
p7978
I5
sVEX_VBD
p7979
I22
sVJJS_,
p7980
I3
sVNNS$_DT
p7981
I1
sVVBG_AT-TL
p7982
I1
sVQL_QL
p7983
I335
sVVBZ_NIL
p7984
I2
sVIN_NN+BEZ
p7985
I3
sVNPS_NP-TL
p7986
I1
sVNR-TL_``
p7987
I2
sVNP-TL_NNS$-TL
p7988
I3
sVCC_DT
p7989
I50
sVCC_DTS
p7990
I10
sVBED_PP$$
p7991
I1
sVIN_QLP
p7992
I28
sVCD-TL_VB
p7993
I1
sVBEN_NP+HVZ
p7994
I1
sVFW-CC-TL_FW-NNS-TL
p7995
I2
sVPPL_DTX
p7996
I1
sVCC_DO
p7997
I12
sVNP$_--
p7998
I3
sVNP_FW-CC-TL
p7999
I1
sV:-HL_NR-HL
p8000
I2
sVIN_DTI
p8001
I384
sVCC_DTX
p8002
I1
sVPP$_QL
p8003
I1
sVIN_DTX
p8004
I31
sVAP_DT+BEZ
p8005
I1
sVIN_DTS
p8006
I163
sVCS_BED
p8007
I12
sVNNS-HL_``
p8008
I1
sVAT-TL_JJ-TL
p8009
I1
sVAT-HL_,-HL
p8010
I2
sVNN-HL_VBG
p8011
I1
sVQL_WRB
p8012
I18
sVCS_BEN
p8013
I10
sVQL_VBG
p8014
I133
sVPPO_VB+IN
p8015
I1
sVCD_NNS-TL
p8016
I6
sVAT-TL_IN
p8017
I115
sVCS_BER
p8018
I20
sVCS_BEZ
p8019
I241
sVABX_VBD
p8020
I16
sVNR_RB
p8021
I95
sVHV_NR
p8022
I2
sVHV_NP
p8023
I39
sV._NR-TL
p8024
I60
sVCC-HL_start
p8025
I2
sVABX_VBN
p8026
I22
sVNR_RP
p8027
I18
sV:-HL_NP-TL
p8028
I1
sVHV_NN
p8029
I153
sVABX_VBZ
p8030
I16
sVMD*_DT
p8031
I16
sVPPSS_WRB+DOD
p8032
I5
sVPPSS_JJ
p8033
I68
sVPPS-NC_``
p8034
I1
sVNN$-TL_NP
p8035
I1
sVNN$-TL_NN
p8036
I2
sVJJ_NNS-TL
p8037
I10
sVJJ_WDT+BEZ
p8038
I5
sVQL_MD*
p8039
I4
sVNNS_CD-TL
p8040
I7
sV(_NNS-NC
p8041
I1
sVPPSS+HV_DT
p8042
I1
sVFW-NNS-TL_,
p8043
I2
sV--_CS
p8044
I9
sVNN-TL-HL_,-HL
p8045
I5
sVPN_BEZ*
p8046
I4
sVVBG_BEZ*
p8047
I9
sVABL_BEDZ
p8048
I7
sV(_--
p8049
I6
sVHVZ_start
p8050
I7
sVNN$_AP
p8051
I27
sVNN$_AT
p8052
I907
sV,_IN-TL
p8053
I1
sV(_JJR
p8054
I5
sV(_JJT
p8055
I4
sVPPSS_QLP
p8056
I1
sVJJ-HL_,-HL
p8057
I11
sVFW-NN_FW-AT
p8058
I15
sVBEZ*_EX
p8059
I10
sVWQL_QL
p8060
I1
sVABN_CD
p8061
I9
sVABN_CC
p8062
I139
sVDT_``
p8063
I109
sVJJ-TL_NN$-TL
p8064
I10
sVRP_JJR
p8065
I2
sVABN_CS
p8066
I147
sVBEN_NNS
p8067
I10
sVCC_PPSS-NC
p8068
I1
sV*_PPSS+HV
p8069
I2
sVDO_ABN
p8070
I1
sVVB_HV+TO
p8071
I2
sVNNS-TL_PP$-TL
p8072
I4
sVBEZ-NC_IN
p8073
I1
sVQL_NN$-TL
p8074
I4
sV,_VBD
p8075
I1439
sV,_VBG
p8076
I714
sVNN_EX+BEZ
p8077
I8
sVAT-TL_WQL-TL
p8078
I1
sV,_VBN
p8079
I1621
sVBER_CD
p8080
I21
sV,_VBZ
p8081
I325
sVJJ-TL_NP-TL
p8082
I153
sVFW-NNS_``
p8083
I5
sV``_WRB
p8084
I10
sVVBG_QL
p8085
I53
sVCS_CD-TL
p8086
I6
sVNP$_JJR-TL
p8087
I2
sV*_BEDZ
p8088
I366
sVVBZ-HL_NN-HL
p8089
I23
sVVBG+TO_PPSS+BEM
p8090
I3
sVMD*_NP-TL
p8091
I1
sVWPO_AP
p8092
I3
sV,_MD
p8093
I113
sVAT-NC_CC
p8094
I1
sVWQL_VBZ
p8095
I1
sVVBG+TO_PPSS+BER
p8096
I1
sV,-HL_CD-HL
p8097
I5
sVWRB+DOZ_start
p8098
I1
sVPP$_PPSS
p8099
I2
sVNP-HL_AT-HL
p8100
I23
sVNNS_NP$-TL
p8101
I3
sVBEZ_RBT
p8102
I1
sVVBG-NC_IN
p8103
I2
sV''_FW-NN-TL
p8104
I11
sVWDT_WRB
p8105
I2
sVABN_NNS-TL
p8106
I2
sVCD-TL_CC
p8107
I35
sVDO*_WRB
p8108
I17
sVPPS+MD_NN-TL
p8109
I1
sVJJ-NC_CC-NC
p8110
I1
sVCD-HL_CC-HL
p8111
I2
sVNP$_HV
p8112
I1
sVPPO_AT
p8113
I1
sV)-HL_VBG-HL
p8114
I1
sVVBN_DT
p8115
I77
sVVBN_NN+BEZ
p8116
I6
sVBE_VBG+TO
p8117
I2
sVVBG_NN+BEZ
p8118
I3
sVVB_UH
p8119
I3
sVIN_TO
p8120
I4
sVPPS_IN
p8121
I13
sVWPS_NP-TL
p8122
I4
sVWQL_VBD
p8123
I4
sVWDT_*
p8124
I10
sVWDT_)
p8125
I12
sVWDT_(
p8126
I35
sVRB_FW-NN-TL
p8127
I2
sVDT_)
p8128
I6
sVDT_(
p8129
I16
sVDT_*
p8130
I14
sVNNS-HL_DTI-HL
p8131
I1
sVDT_,
p8132
I430
sVWDT_:
p8133
I17
sVDT_:
p8134
I10
sVAP_NN
p8135
I170
sVIN_PPO
p8136
I1785
sVIN_PPL
p8137
I221
sVJJS_NP$
p8138
I11
sVBED_WPO
p8139
I9
sVBED_WPS
p8140
I98
sVFW-CD-TL_CC-TL
p8141
I1
sVIN_PPS
p8142
I26
sVFW-NNS_FW-IN
p8143
I3
sVCD-TL_:-TL
p8144
I22
sVPP$-TL_UH-TL
p8145
I1
sVNNS-TL_CS
p8146
I15
sV,_VBG-TL
p8147
I7
sVABL_DOD
p8148
I1
sV,_JJ-NC
p8149
I2
sVNNS-TL_CC
p8150
I16
sVVBG_NPS$
p8151
I2
sVABL_DOZ
p8152
I1
sVNNS-TL_CD
p8153
I30
sV._WRB
p8154
I45
sV(_VB-TL
p8155
I1
sVVBG-TL_JJ
p8156
I4
sVPPO_DOZ*
p8157
I1
sVCC-HL_VBG-HL
p8158
I2
sVPPSS-TL_HV-TL
p8159
I1
sVDO*_NN-TL
p8160
I3
sVAP-HL_)
p8161
I1
sVJJ_NNS$-NC
p8162
I1
sVVB_HVZ
p8163
I1
sVVBZ-HL_CC-HL
p8164
I1
sVNNS-NC_HV-NC
p8165
I4
sVBEZ_DTI
p8166
I1
sVPPL_PPS
p8167
I24
sVPPL_PPO
p8168
I14
sVBEZ_DTS
p8169
I8
sVVB_HVD
p8170
I1
sVCS_PPS+BEZ
p8171
I5
sVBEZ_DTX
p8172
I1
sVVB_PPS+HVD
p8173
I1
sVRB-TL_VBZ-TL
p8174
I2
sVWQL_start
p8175
I43
sVPPL_PP$
p8176
I1
sVWPS+BEZ-NC_VBZ
p8177
I1
sVRBR_PPSS+BER
p8178
I1
sV,_JJT
p8179
I37
sV,_JJR
p8180
I114
sV,_JJS
p8181
I5
sVFW-NNS_PP$
p8182
I1
sVDTI_DT+BEZ
p8183
I1
sVPPSS+MD_DT
p8184
I2
sVJJ-TL_DT
p8185
I12
sVJJT_``
p8186
I6
sVPPSS+MD_``
p8187
I105
sV.-TL_NN-TL
p8188
I1
sVNP-TL_IN
p8189
I538
sVVBD-NC_NP-NC
p8190
I2
sVPN$_BER
p8191
I1
sV*-HL_DO-HL
p8192
I2
sVAT_JJ-TL
p8193
I1
sVNN$-TL_VBG
p8194
I1
sVNN$-TL_VBD
p8195
I1
sVNNS$-TL_``
p8196
I3
sVFW-IN_CC
p8197
I2
sVBEG_PN$
p8198
I1
sV``_TO
p8199
I60
sVVBG-NC_PPSS+BER-NC
p8200
I1
sV._NRS
p8201
I1
sVBEZ-HL_NN-TL-HL
p8202
I1
sVVBZ_,
p8203
I490
sV,_(
p8204
I2
sVVBZ_)
p8205
I38
sVNN-TL_FW-NN-TL
p8206
I1
sV(-HL_NP-HL
p8207
I9
sVPPSS-HL_NN-HL
p8208
I3
sVBEZ_JJR
p8209
I3
sVBEZ_JJT
p8210
I7
sVNN$-TL_NN-TL
p8211
I34
sVWPS_IN
p8212
I9
sVPP$-NC_WRB
p8213
I1
sVNP_PPSS+BEM
p8214
I5
sVABL_HV
p8215
I7
sVNN-TL_BEG
p8216
I1
sV*_VB
p8217
I45
sVFW-WDT_NN
p8218
I11
sVNP_PPSS+BER
p8219
I1
sVNR-TL_PP$
p8220
I1
sV(_WPS
p8221
I2
sVFW-IN_FW-JJ
p8222
I1
sV,_FW-PPL
p8223
I1
sV,_FW-PPO
p8224
I1
sVIN_NN$-TL
p8225
I1
sVNP$_RBR
p8226
I1
sVVBN-HL_BE-HL
p8227
I9
sVJJ_NR$
p8228
I13
sVNPS_IN
p8229
I106
sVBEDZ*_start
p8230
I7
sVBEZ_WPS
p8231
I214
sVPPSS-NC_WPO-NC
p8232
I1
sV:-HL_)-HL
p8233
I1
sVBER_CS
p8234
I20
sV'_IN
p8235
I13
sVABN_start
p8236
I195
sVVB_BEZ
p8237
I10
sVBER_CC
p8238
I92
sVNN-TL_WRB
p8239
I27
sVPP$_DOD
p8240
I17
sVFW-UH_``
p8241
I5
sVWDT_DT
p8242
I36
sVBEZ_AP
p8243
I34
sVBEG_PPS+BEZ
p8244
I1
sV--_PN
p8245
I20
sVNP_EX+BEZ
p8246
I2
sVWDT_DO
p8247
I18
sVBE_AP
p8248
I4
sVFW-IN+AT-TL_NP-TL
p8249
I1
sVFW-VBZ_FW-NN
p8250
I2
sVCC-TL-HL_NP-HL
p8251
I1
sV)_RP
p8252
I7
sVNPS$_IN
p8253
I2
sV)_RB
p8254
I59
sVFW-JJ_NN
p8255
I1
sVRBR_PPSS+HVD
p8256
I13
sVRB-TL_PPO-TL
p8257
I2
sVNPS-TL_OD-TL
p8258
I1
sVHV_PPS
p8259
I10
sVFW-JJ_NP
p8260
I1
sVPP$_DOZ
p8261
I9
sVPPSS+HV_NNS
p8262
I10
sVHV_PPL
p8263
I3
sVHV_PPO
p8264
I35
s.